ARM GAS  C:\Users\black\AppData\Local\Temp\ccj7eVXi.s 			page 1


   1              		.syntax unified
   2              		.cpu cortex-m0
   3              		.fpu softvfp
   4              		.eabi_attribute 20, 1
   5              		.eabi_attribute 21, 1
   6              		.eabi_attribute 23, 3
   7              		.eabi_attribute 24, 1
   8              		.eabi_attribute 25, 1
   9              		.eabi_attribute 26, 1
  10              		.eabi_attribute 30, 6
  11              		.eabi_attribute 34, 0
  12              		.eabi_attribute 18, 4
  13              		.thumb
  14              		.syntax unified
  15              		.file	"BLE.c"
  16              		.text
  17              	.Ltext0:
  18              		.cfi_sections	.debug_frame
  19              		.global	cyBle_initVar
  20              		.bss
  21              		.type	cyBle_initVar, %object
  22              		.size	cyBle_initVar, 1
  23              	cyBle_initVar:
  24 0000 00       		.space	1
  25              		.global	cyBle_stackMemoryRam
  26              		.section	.noinit,"aw",%progbits
  27              		.align	3
  28              		.type	cyBle_stackMemoryRam, %object
  29              		.size	cyBle_stackMemoryRam, 2912
  30              	cyBle_stackMemoryRam:
  31 0000 00000000 		.space	2912
  31      00000000 
  31      00000000 
  31      00000000 
  31      00000000 
  32              		.global	cyBle_discoveryParam
  33              		.data
  34              		.align	2
  35              		.type	cyBle_discoveryParam, %object
  36              		.size	cyBle_discoveryParam, 16
  37              	cyBle_discoveryParam:
  38 0000 2000     		.short	32
  39 0002 2000     		.short	32
  40 0004 00       		.byte	0
  41 0005 00       		.byte	0
  42 0006 00       		.byte	0
  43 0007 08       		.byte	8
  44 0008 00       		.byte	0
  45 0009 00       		.byte	0
  46 000a 50       		.byte	80
  47 000b A0       		.byte	-96
  48 000c 00       		.byte	0
  49 000d 07       		.byte	7
  50 000e 00       		.byte	0
  51 000f 00       		.space	1
  52              		.global	cyBle_discoveryData
  53              		.align	2
ARM GAS  C:\Users\black\AppData\Local\Temp\ccj7eVXi.s 			page 2


  54              		.type	cyBle_discoveryData, %object
  55              		.size	cyBle_discoveryData, 32
  56              	cyBle_discoveryData:
  57 0010 02       		.byte	2
  58 0011 01       		.byte	1
  59 0012 06       		.byte	6
  60 0013 0D       		.byte	13
  61 0014 09       		.byte	9
  62 0015 42       		.byte	66
  63 0016 4C       		.byte	76
  64 0017 45       		.byte	69
  65 0018 20       		.byte	32
  66 0019 4B       		.byte	75
  67 001a 65       		.byte	101
  68 001b 79       		.byte	121
  69 001c 62       		.byte	98
  70 001d 6F       		.byte	111
  71 001e 61       		.byte	97
  72 001f 72       		.byte	114
  73 0020 64       		.byte	100
  74 0021 09       		.byte	9
  75 0022 03       		.byte	3
  76 0023 12       		.byte	18
  77 0024 18       		.byte	24
  78 0025 0A       		.byte	10
  79 0026 18       		.byte	24
  80 0027 0F       		.byte	15
  81 0028 18       		.byte	24
  82 0029 13       		.byte	19
  83 002a 18       		.byte	24
  84 002b 03       		.byte	3
  85 002c 19       		.byte	25
  86 002d C1       		.byte	-63
  87 002e 03       		.byte	3
  88 002f 1F       		.byte	31
  89              		.global	cyBle_scanRspData
  90              		.bss
  91 0001 000000   		.align	2
  92              		.type	cyBle_scanRspData, %object
  93              		.size	cyBle_scanRspData, 32
  94              	cyBle_scanRspData:
  95 0004 00000000 		.space	32
  95      00000000 
  95      00000000 
  95      00000000 
  95      00000000 
  96              		.global	cyBle_discoveryModeInfo
  97              		.data
  98              		.align	2
  99              		.type	cyBle_discoveryModeInfo, %object
 100              		.size	cyBle_discoveryModeInfo, 20
 101              	cyBle_discoveryModeInfo:
 102 0030 02       		.byte	2
 103 0031 000000   		.space	3
 104 0034 00000000 		.word	cyBle_discoveryParam
 105 0038 00000000 		.word	cyBle_discoveryData
 106 003c 00000000 		.word	cyBle_scanRspData
ARM GAS  C:\Users\black\AppData\Local\Temp\ccj7eVXi.s 			page 3


 107 0040 1E00     		.short	30
 108 0042 0000     		.space	2
 109              		.comm	cyBle_peerBonding,1,1
 110              		.comm	cyBle_pendingFlashWrite,1,1
 111              		.bss
 112              	cyBle_pendingFlashClearCccdHandle:
 113 0024 00       		.space	1
 114              		.comm	CyBle_ApplCallback,4,4
 115              		.global	cyBle_deviceAddress
 116              		.data
 117              		.align	2
 118              		.type	cyBle_deviceAddress, %object
 119              		.size	cyBle_deviceAddress, 7
 120              	cyBle_deviceAddress:
 121 0044 08       		.byte	8
 122 0045 00       		.byte	0
 123 0046 00       		.byte	0
 124 0047 50       		.byte	80
 125 0048 A0       		.byte	-96
 126 0049 00       		.byte	0
 127 004a 00       		.byte	0
 128              		.global	cyBle_sflashDeviceAddress
 129 004b 00       		.align	2
 130              		.type	cyBle_sflashDeviceAddress, %object
 131              		.size	cyBle_sflashDeviceAddress, 4
 132              	cyBle_sflashDeviceAddress:
 133 004c 00F4FF0F 		.word	268432384
 134              		.section	.text.CyBle_Init,"ax",%progbits
 135              		.align	2
 136              		.global	CyBle_Init
 137              		.code	16
 138              		.thumb_func
 139              		.type	CyBle_Init, %function
 140              	CyBle_Init:
 141              	.LFB2:
 142              		.file 1 "Generated_Source\\PSoC4\\BLE.c"
   1:Generated_Source\PSoC4/BLE.c **** /***************************************************************************//**
   2:Generated_Source\PSoC4/BLE.c **** * \file CYBLE.c
   3:Generated_Source\PSoC4/BLE.c **** * \version 3.30
   4:Generated_Source\PSoC4/BLE.c **** * 
   5:Generated_Source\PSoC4/BLE.c **** * \brief
   6:Generated_Source\PSoC4/BLE.c **** *  This file contains the source code for the Common APIs of the BLE Component.
   7:Generated_Source\PSoC4/BLE.c **** * 
   8:Generated_Source\PSoC4/BLE.c **** ********************************************************************************
   9:Generated_Source\PSoC4/BLE.c **** * \copyright
  10:Generated_Source\PSoC4/BLE.c **** * Copyright 2014-2016, Cypress Semiconductor Corporation.  All rights reserved.
  11:Generated_Source\PSoC4/BLE.c **** * You may use this file only in accordance with the license, terms, conditions,
  12:Generated_Source\PSoC4/BLE.c **** * disclaimers, and limitations in the end user license agreement accompanying
  13:Generated_Source\PSoC4/BLE.c **** * the software package with which this file was provided.
  14:Generated_Source\PSoC4/BLE.c **** *******************************************************************************/
  15:Generated_Source\PSoC4/BLE.c **** 
  16:Generated_Source\PSoC4/BLE.c **** #include "BLE_eventHandler.h"
  17:Generated_Source\PSoC4/BLE.c **** #include "BLE_HAL_PVT.h"
  18:Generated_Source\PSoC4/BLE.c **** #include <stdlib.h>
  19:Generated_Source\PSoC4/BLE.c **** 
  20:Generated_Source\PSoC4/BLE.c **** 
  21:Generated_Source\PSoC4/BLE.c **** /***************************************
ARM GAS  C:\Users\black\AppData\Local\Temp\ccj7eVXi.s 			page 4


  22:Generated_Source\PSoC4/BLE.c **** * Function Prototypes
  23:Generated_Source\PSoC4/BLE.c **** ***************************************/
  24:Generated_Source\PSoC4/BLE.c **** 
  25:Generated_Source\PSoC4/BLE.c **** #if(CYBLE_GATT_ROLE_SERVER)
  26:Generated_Source\PSoC4/BLE.c ****     #if(CYBLE_GAP_ROLE_PERIPHERAL)
  27:Generated_Source\PSoC4/BLE.c ****         static void CyBle_ChangeAdLocalName(const char8 name[], uint8 dest);
  28:Generated_Source\PSoC4/BLE.c ****     #endif /* (CYBLE_GAP_ROLE_PERIPHERAL) */
  29:Generated_Source\PSoC4/BLE.c **** #endif /* (CYBLE_GATT_ROLE_SERVER) */
  30:Generated_Source\PSoC4/BLE.c ****     
  31:Generated_Source\PSoC4/BLE.c **** 
  32:Generated_Source\PSoC4/BLE.c **** /***************************************
  33:Generated_Source\PSoC4/BLE.c **** * Global Variables
  34:Generated_Source\PSoC4/BLE.c **** ***************************************/
  35:Generated_Source\PSoC4/BLE.c **** 
  36:Generated_Source\PSoC4/BLE.c **** /* Indicates whether the BLE has been initialized. The variable is initialized to
  37:Generated_Source\PSoC4/BLE.c ****    0 and set to 1 the first time CyBle_Start() is called. This allows the component
  38:Generated_Source\PSoC4/BLE.c ****    to restart without reinitialization after the first call to the CyBle_Start() 
  39:Generated_Source\PSoC4/BLE.c ****    routine. If reinitialization of the component is required, the variable should 
  40:Generated_Source\PSoC4/BLE.c ****    be set to 0 before the CyBle_Start() routine is called. Alternatively, the BLE
  41:Generated_Source\PSoC4/BLE.c ****    can be reinitialized by calling the CyBle_Init() function.
  42:Generated_Source\PSoC4/BLE.c **** */
  43:Generated_Source\PSoC4/BLE.c **** uint8  cyBle_initVar = 0u;
  44:Generated_Source\PSoC4/BLE.c **** 
  45:Generated_Source\PSoC4/BLE.c **** /* Allocate RAM memory for stack. This buffer could be reused by application when 
  46:Generated_Source\PSoC4/BLE.c ****    BLE component is stopped. For export mode buffer is allocated in heap.
  47:Generated_Source\PSoC4/BLE.c **** */
  48:Generated_Source\PSoC4/BLE.c **** #if(CYBLE_SHARING_MODE_EXPORT)
  49:Generated_Source\PSoC4/BLE.c ****     
  50:Generated_Source\PSoC4/BLE.c **** uint8 *cyBle_stackMemoryRam = NULL;
  51:Generated_Source\PSoC4/BLE.c **** 
  52:Generated_Source\PSoC4/BLE.c **** #else
  53:Generated_Source\PSoC4/BLE.c **** 
  54:Generated_Source\PSoC4/BLE.c **** CYBLE_CYALIGNED_BEGIN CY_NOINIT uint8 cyBle_stackMemoryRam[CYBLE_STACK_RAM_SIZE] CYBLE_CYALIGNED_EN
  55:Generated_Source\PSoC4/BLE.c **** 
  56:Generated_Source\PSoC4/BLE.c **** #endif  /* CYBLE_SHARING_MODE_EXPORT */
  57:Generated_Source\PSoC4/BLE.c **** 
  58:Generated_Source\PSoC4/BLE.c **** #if(CYBLE_GAP_ROLE_PERIPHERAL || CYBLE_GAP_ROLE_BROADCASTER)
  59:Generated_Source\PSoC4/BLE.c **** 
  60:Generated_Source\PSoC4/BLE.c **** CYBLE_GAPP_DISC_PARAM_T cyBle_discoveryParam =
  61:Generated_Source\PSoC4/BLE.c **** {
  62:Generated_Source\PSoC4/BLE.c ****     0x0020u,    /* uint16 advertising_interval_min */
  63:Generated_Source\PSoC4/BLE.c ****     0x0020u,    /* uint16 advertising_interval_max */
  64:Generated_Source\PSoC4/BLE.c ****     CYBLE_GAPP_CONNECTABLE_UNDIRECTED_ADV, /* uint8 advertising_type */
  65:Generated_Source\PSoC4/BLE.c ****     0x00u,      /* uint8 own_addr_type */
  66:Generated_Source\PSoC4/BLE.c ****     0x00u,      /* uint8 direct_addr_type */
  67:Generated_Source\PSoC4/BLE.c ****     {0x08u, 0x00u, 0x00u, 0x50u, 0xA0u, 0x00u}, /* uint8* direct_addr */
  68:Generated_Source\PSoC4/BLE.c ****     0x07u,      /* uint8 advertising_channel_map */
  69:Generated_Source\PSoC4/BLE.c ****     0x00u,      /* uint8 advertising_filter_policy */
  70:Generated_Source\PSoC4/BLE.c **** };
  71:Generated_Source\PSoC4/BLE.c **** 
  72:Generated_Source\PSoC4/BLE.c **** CYBLE_GAPP_DISC_DATA_T cyBle_discoveryData =
  73:Generated_Source\PSoC4/BLE.c **** {
  74:Generated_Source\PSoC4/BLE.c ****     { 0x02u, 0x01u, 0x06u, 0x0Du, 0x09u, 0x42u, 0x4Cu,
  75:Generated_Source\PSoC4/BLE.c ****     0x45u, 0x20u, 0x4Bu, 0x65u, 0x79u, 0x62u, 0x6Fu, 0x61u,
  76:Generated_Source\PSoC4/BLE.c ****     0x72u, 0x64u, 0x09u, 0x03u, 0x12u, 0x18u, 0x0Au, 0x18u,
  77:Generated_Source\PSoC4/BLE.c ****     0x0Fu, 0x18u, 0x13u, 0x18u, 0x03u, 0x19u, 0xC1u, 0x03u }, /* uint8 advertising_data[CYBLE_MAX_A
  78:Generated_Source\PSoC4/BLE.c ****     0x1Fu,      /* uint8 adv_data_length */
ARM GAS  C:\Users\black\AppData\Local\Temp\ccj7eVXi.s 			page 5


  79:Generated_Source\PSoC4/BLE.c **** };
  80:Generated_Source\PSoC4/BLE.c **** 
  81:Generated_Source\PSoC4/BLE.c **** CYBLE_GAPP_SCAN_RSP_DATA_T cyBle_scanRspData =
  82:Generated_Source\PSoC4/BLE.c **** {
  83:Generated_Source\PSoC4/BLE.c ****     { 0x00u, 0x00u, 0x00u, 0x00u, 0x00u, 0x00u, 0x00u,
  84:Generated_Source\PSoC4/BLE.c ****     0x00u, 0x00u, 0x00u, 0x00u, 0x00u, 0x00u, 0x00u, 0x00u,
  85:Generated_Source\PSoC4/BLE.c ****     0x00u, 0x00u, 0x00u, 0x00u, 0x00u, 0x00u, 0x00u, 0x00u,
  86:Generated_Source\PSoC4/BLE.c ****     0x00u, 0x00u, 0x00u, 0x00u, 0x00u, 0x00u, 0x00u, 0x00u }, /* uint8 scan_rsp_data[CYBLE_MAX_SCAN
  87:Generated_Source\PSoC4/BLE.c ****     0x00u,      /* uint8 scan_rsp_data_length */
  88:Generated_Source\PSoC4/BLE.c **** };
  89:Generated_Source\PSoC4/BLE.c **** 
  90:Generated_Source\PSoC4/BLE.c **** /* This variable of type CYBLE_GAPP_DISC_MODE_INFO_T is present only when 
  91:Generated_Source\PSoC4/BLE.c ****    the BLE component is configured for Peripheral GAP role or Central and 
  92:Generated_Source\PSoC4/BLE.c ****    Peripheral GAP role. It contains the Advertisement settings and also the 
  93:Generated_Source\PSoC4/BLE.c ****    Advertisement and Scan response data parameters entered in the customizer.
  94:Generated_Source\PSoC4/BLE.c ****    This variable can be used by advanced users to change Advertisement settings,
  95:Generated_Source\PSoC4/BLE.c ****    Advertisement or Scan response data in runtime. 
  96:Generated_Source\PSoC4/BLE.c **** */
  97:Generated_Source\PSoC4/BLE.c **** CYBLE_GAPP_DISC_MODE_INFO_T cyBle_discoveryModeInfo =
  98:Generated_Source\PSoC4/BLE.c **** {
  99:Generated_Source\PSoC4/BLE.c ****     0x02u,      /* uint8 discMode */
 100:Generated_Source\PSoC4/BLE.c ****     &cyBle_discoveryParam,
 101:Generated_Source\PSoC4/BLE.c ****     &cyBle_discoveryData,
 102:Generated_Source\PSoC4/BLE.c ****     &cyBle_scanRspData,
 103:Generated_Source\PSoC4/BLE.c ****     0x001Eu,    /* uint16 advTo */
 104:Generated_Source\PSoC4/BLE.c **** };
 105:Generated_Source\PSoC4/BLE.c **** 
 106:Generated_Source\PSoC4/BLE.c **** 
 107:Generated_Source\PSoC4/BLE.c **** #endif /* CYBLE_GAP_ROLE_PERIPHERAL || CYBLE_GAP_ROLE_BROADCASTER */
 108:Generated_Source\PSoC4/BLE.c **** 
 109:Generated_Source\PSoC4/BLE.c **** #if(CYBLE_GAP_ROLE_CENTRAL)
 110:Generated_Source\PSoC4/BLE.c ****     
 111:Generated_Source\PSoC4/BLE.c **** CYBLE_GAPC_CONN_PARAM_T cyBle_connectionParameters;
 112:Generated_Source\PSoC4/BLE.c **** 
 113:Generated_Source\PSoC4/BLE.c **** /* Connecting timeout is set to 30 seconds in CyBle_Init function. 
 114:Generated_Source\PSoC4/BLE.c ****    Not zero value starts timer in CyBle_GapcConnectDevice API.
 115:Generated_Source\PSoC4/BLE.c **** */
 116:Generated_Source\PSoC4/BLE.c **** uint16 cyBle_connectingTimeout;
 117:Generated_Source\PSoC4/BLE.c ****     
 118:Generated_Source\PSoC4/BLE.c **** #endif /* CYBLE_GAP_ROLE_CENTRAL */
 119:Generated_Source\PSoC4/BLE.c **** 
 120:Generated_Source\PSoC4/BLE.c **** #if(CYBLE_GAP_ROLE_CENTRAL || CYBLE_GAP_ROLE_OBSERVER)
 121:Generated_Source\PSoC4/BLE.c ****     
 122:Generated_Source\PSoC4/BLE.c **** 
 123:Generated_Source\PSoC4/BLE.c ****     
 124:Generated_Source\PSoC4/BLE.c **** #endif /* CYBLE_GAP_ROLE_CENTRAL || CYBLE_GAP_ROLE_OBSERVER */
 125:Generated_Source\PSoC4/BLE.c **** 
 126:Generated_Source\PSoC4/BLE.c **** #if((CYBLE_GAP_ROLE_PERIPHERAL || CYBLE_GAP_ROLE_CENTRAL) && (CYBLE_BONDING_REQUIREMENT == CYBLE_BO
 127:Generated_Source\PSoC4/BLE.c **** 
 128:Generated_Source\PSoC4/BLE.c **** uint8 cyBle_peerBonding;
 129:Generated_Source\PSoC4/BLE.c **** uint8 cyBle_pendingFlashWrite;
 130:Generated_Source\PSoC4/BLE.c ****     
 131:Generated_Source\PSoC4/BLE.c **** #if(CYBLE_GATT_DB_CCCD_COUNT != 0u)
 132:Generated_Source\PSoC4/BLE.c ****     static uint8 cyBle_pendingFlashClearCccdHandle;
 133:Generated_Source\PSoC4/BLE.c **** #endif /* CYBLE_GATT_DB_CCCD_COUNT != 0u */
 134:Generated_Source\PSoC4/BLE.c ****     
 135:Generated_Source\PSoC4/BLE.c **** #endif  /* (CYBLE_BONDING_REQUIREMENT == CYBLE_BONDING_YES) */
ARM GAS  C:\Users\black\AppData\Local\Temp\ccj7eVXi.s 			page 6


 136:Generated_Source\PSoC4/BLE.c **** 
 137:Generated_Source\PSoC4/BLE.c **** CYBLE_CALLBACK_T CyBle_ApplCallback;
 138:Generated_Source\PSoC4/BLE.c **** CYBLE_GAP_BD_ADDR_T cyBle_deviceAddress = {{0x08u, 0x00u, 0x00u, 0x50u, 0xA0u, 0x00u}, 0x00u };
 139:Generated_Source\PSoC4/BLE.c **** CYBLE_GAP_BD_ADDR_T * cyBle_sflashDeviceAddress = CYBLE_SFLASH_DEVICE_ADDRESS_PTR;
 140:Generated_Source\PSoC4/BLE.c **** 
 141:Generated_Source\PSoC4/BLE.c **** 
 142:Generated_Source\PSoC4/BLE.c **** /******************************************************************************
 143:Generated_Source\PSoC4/BLE.c **** * Function Name: CyBle_Init
 144:Generated_Source\PSoC4/BLE.c **** ***************************************************************************//**
 145:Generated_Source\PSoC4/BLE.c **** *
 146:Generated_Source\PSoC4/BLE.c **** *   Initializes the component with the parameters set in the customizer.
 147:Generated_Source\PSoC4/BLE.c **** * 
 148:Generated_Source\PSoC4/BLE.c **** *  \return
 149:Generated_Source\PSoC4/BLE.c **** *   None
 150:Generated_Source\PSoC4/BLE.c **** * 
 151:Generated_Source\PSoC4/BLE.c **** ******************************************************************************/
 152:Generated_Source\PSoC4/BLE.c **** void CyBle_Init(void)
 153:Generated_Source\PSoC4/BLE.c **** {
 143              		.loc 1 153 0
 144              		.cfi_startproc
 145              		@ args = 0, pretend = 0, frame = 0
 146              		@ frame_needed = 1, uses_anonymous_args = 0
 147 0000 80B5     		push	{r7, lr}
 148              		.cfi_def_cfa_offset 8
 149              		.cfi_offset 7, -8
 150              		.cfi_offset 14, -4
 151 0002 00AF     		add	r7, sp, #0
 152              		.cfi_def_cfa_register 7
 154:Generated_Source\PSoC4/BLE.c ****     cyBle_eventHandlerFlag = 0u;
 153              		.loc 1 154 0
 154 0004 094B     		ldr	r3, .L2
 155 0006 0022     		movs	r2, #0
 156 0008 1A70     		strb	r2, [r3]
 155:Generated_Source\PSoC4/BLE.c ****     cyBle_busyStatus = CYBLE_STACK_STATE_FREE;
 157              		.loc 1 155 0
 158 000a 094B     		ldr	r3, .L2+4
 159 000c 0022     		movs	r2, #0
 160 000e 1A70     		strb	r2, [r3]
 156:Generated_Source\PSoC4/BLE.c **** 
 157:Generated_Source\PSoC4/BLE.c ****     #if(CYBLE_GAP_ROLE_PERIPHERAL || CYBLE_GAP_ROLE_BROADCASTER) 
 158:Generated_Source\PSoC4/BLE.c ****         cyBle_advertisingIntervalType = CYBLE_ADVERTISING_FAST; 
 161              		.loc 1 158 0
 162 0010 084B     		ldr	r3, .L2+8
 163 0012 0022     		movs	r2, #0
 164 0014 1A70     		strb	r2, [r3]
 159:Generated_Source\PSoC4/BLE.c ****     #endif /* (CYBLE_GAP_ROLE_PERIPHERAL || CYBLE_GAP_ROLE_BROADCASTER)  */
 160:Generated_Source\PSoC4/BLE.c ****     #if(CYBLE_GAP_ROLE_CENTRAL || CYBLE_GAP_ROLE_OBSERVER)
 161:Generated_Source\PSoC4/BLE.c ****         cyBle_scanningIntervalType = CYBLE_SCANNING_FAST; 
 162:Generated_Source\PSoC4/BLE.c ****     #endif /* (CYBLE_GAP_ROLE_CENTRAL || CYBLE_GAP_ROLE_OBSERVER) */
 163:Generated_Source\PSoC4/BLE.c ****         
 164:Generated_Source\PSoC4/BLE.c ****     /* Init default connection parameters. 
 165:Generated_Source\PSoC4/BLE.c ****        Application may change it before initiating a connection */
 166:Generated_Source\PSoC4/BLE.c ****     #if(CYBLE_GAP_ROLE_CENTRAL)
 167:Generated_Source\PSoC4/BLE.c ****         cyBle_connectionParameters.scanIntv = cyBle_discoveryInfo.scanIntv;
 168:Generated_Source\PSoC4/BLE.c ****         cyBle_connectionParameters.scanWindow = cyBle_discoveryInfo.scanWindow;
 169:Generated_Source\PSoC4/BLE.c ****         cyBle_connectionParameters.ownAddrType = cyBle_discoveryInfo.ownAddrType;
 170:Generated_Source\PSoC4/BLE.c ****         cyBle_connectionParameters.initiatorFilterPolicy = cyBle_discoveryInfo.scanFilterPolicy;
ARM GAS  C:\Users\black\AppData\Local\Temp\ccj7eVXi.s 			page 7


 171:Generated_Source\PSoC4/BLE.c ****         cyBle_connectionParameters.connIntvMin = CYBLE_GAPC_CONNECTION_INTERVAL_MIN;
 172:Generated_Source\PSoC4/BLE.c ****         cyBle_connectionParameters.connIntvMax = CYBLE_GAPC_CONNECTION_INTERVAL_MAX;
 173:Generated_Source\PSoC4/BLE.c ****         cyBle_connectionParameters.connLatency = CYBLE_GAPC_CONNECTION_SLAVE_LATENCY;
 174:Generated_Source\PSoC4/BLE.c ****         cyBle_connectionParameters.supervisionTO = CYBLE_GAPC_CONNECTION_TIME_OUT;
 175:Generated_Source\PSoC4/BLE.c ****         cyBle_connectionParameters.minCeLength = 0x0000u;
 176:Generated_Source\PSoC4/BLE.c ****         cyBle_connectionParameters.maxCeLength = 0xFFFFu;
 177:Generated_Source\PSoC4/BLE.c ****         
 178:Generated_Source\PSoC4/BLE.c ****         cyBle_connectingTimeout = CYBLE_GAPC_CONNECTING_TIMEOUT;
 179:Generated_Source\PSoC4/BLE.c ****     #endif /* CYBLE_GAP_ROLE_CENTRAL */
 180:Generated_Source\PSoC4/BLE.c **** 
 181:Generated_Source\PSoC4/BLE.c ****     CyBle_ServiceInit();
 165              		.loc 1 181 0
 166 0016 FFF7FEFF 		bl	CyBle_ServiceInit
 182:Generated_Source\PSoC4/BLE.c **** 
 183:Generated_Source\PSoC4/BLE.c ****     #if((CYBLE_GAP_ROLE_PERIPHERAL || CYBLE_GAP_ROLE_CENTRAL) && (CYBLE_BONDING_REQUIREMENT == CYBL
 184:Generated_Source\PSoC4/BLE.c ****         cyBle_pendingFlashWrite = 0u;
 167              		.loc 1 184 0
 168 001a 074B     		ldr	r3, .L2+12
 169 001c 0022     		movs	r2, #0
 170 001e 1A70     		strb	r2, [r3]
 185:Generated_Source\PSoC4/BLE.c ****         cyBle_peerBonding = CYBLE_GAP_BONDING_NONE;
 171              		.loc 1 185 0
 172 0020 064B     		ldr	r3, .L2+16
 173 0022 0022     		movs	r2, #0
 174 0024 1A70     		strb	r2, [r3]
 186:Generated_Source\PSoC4/BLE.c ****     #endif  /* (CYBLE_BONDING_REQUIREMENT == CYBLE_BONDING_YES) */
 187:Generated_Source\PSoC4/BLE.c **** 
 188:Generated_Source\PSoC4/BLE.c **** }
 175              		.loc 1 188 0
 176 0026 C046     		nop
 177 0028 BD46     		mov	sp, r7
 178              		@ sp needed
 179 002a 80BD     		pop	{r7, pc}
 180              	.L3:
 181              		.align	2
 182              	.L2:
 183 002c 00000000 		.word	cyBle_eventHandlerFlag
 184 0030 00000000 		.word	cyBle_busyStatus
 185 0034 00000000 		.word	cyBle_advertisingIntervalType
 186 0038 00000000 		.word	cyBle_pendingFlashWrite
 187 003c 00000000 		.word	cyBle_peerBonding
 188              		.cfi_endproc
 189              	.LFE2:
 190              		.size	CyBle_Init, .-CyBle_Init
 191              		.section	.text.CyBle_ServiceInit,"ax",%progbits
 192              		.align	2
 193              		.global	CyBle_ServiceInit
 194              		.code	16
 195              		.thumb_func
 196              		.type	CyBle_ServiceInit, %function
 197              	CyBle_ServiceInit:
 198              	.LFB3:
 189:Generated_Source\PSoC4/BLE.c **** 
 190:Generated_Source\PSoC4/BLE.c **** 
 191:Generated_Source\PSoC4/BLE.c **** /******************************************************************************
 192:Generated_Source\PSoC4/BLE.c **** * Function Name: CyBle_ServiceInit
 193:Generated_Source\PSoC4/BLE.c **** ***************************************************************************//**
ARM GAS  C:\Users\black\AppData\Local\Temp\ccj7eVXi.s 			page 8


 194:Generated_Source\PSoC4/BLE.c **** * 
 195:Generated_Source\PSoC4/BLE.c **** *  Initializes all included services.
 196:Generated_Source\PSoC4/BLE.c **** * 
 197:Generated_Source\PSoC4/BLE.c **** * \return
 198:Generated_Source\PSoC4/BLE.c **** *  None
 199:Generated_Source\PSoC4/BLE.c **** * 
 200:Generated_Source\PSoC4/BLE.c **** ******************************************************************************/
 201:Generated_Source\PSoC4/BLE.c **** void CyBle_ServiceInit(void)
 202:Generated_Source\PSoC4/BLE.c **** {
 199              		.loc 1 202 0
 200              		.cfi_startproc
 201              		@ args = 0, pretend = 0, frame = 0
 202              		@ frame_needed = 1, uses_anonymous_args = 0
 203 0000 80B5     		push	{r7, lr}
 204              		.cfi_def_cfa_offset 8
 205              		.cfi_offset 7, -8
 206              		.cfi_offset 14, -4
 207 0002 00AF     		add	r7, sp, #0
 208              		.cfi_def_cfa_register 7
 203:Generated_Source\PSoC4/BLE.c ****     #if(CYBLE_GATT_ROLE_CLIENT)
 204:Generated_Source\PSoC4/BLE.c ****         /* Check service range before clearing to support partial discovery */
 205:Generated_Source\PSoC4/BLE.c ****         if(cyBle_serverInfo[CYBLE_SRVI_GAP].range.startHandle == CYBLE_GATT_INVALID_ATTR_HANDLE_VAL
 206:Generated_Source\PSoC4/BLE.c ****         {
 207:Generated_Source\PSoC4/BLE.c ****             (void)memset(&cyBle_gapc, 0, sizeof(cyBle_gapc));
 208:Generated_Source\PSoC4/BLE.c ****         }
 209:Generated_Source\PSoC4/BLE.c ****         if(cyBle_serverInfo[CYBLE_SRVI_GATT].range.startHandle == CYBLE_GATT_INVALID_ATTR_HANDLE_VA
 210:Generated_Source\PSoC4/BLE.c ****         {
 211:Generated_Source\PSoC4/BLE.c ****             (void)memset(&cyBle_gattc, 0, sizeof(cyBle_gattc));
 212:Generated_Source\PSoC4/BLE.c ****         }
 213:Generated_Source\PSoC4/BLE.c ****     #endif /* CYBLE_GATT_ROLE_CLIENT */
 214:Generated_Source\PSoC4/BLE.c **** 
 215:Generated_Source\PSoC4/BLE.c ****    	#ifdef CYBLE_AIOS
 216:Generated_Source\PSoC4/BLE.c ****         CyBle_AiosInit();
 217:Generated_Source\PSoC4/BLE.c ****     #endif /* CYBLE_AIOS */
 218:Generated_Source\PSoC4/BLE.c **** 
 219:Generated_Source\PSoC4/BLE.c **** 	#ifdef CYBLE_ANCS
 220:Generated_Source\PSoC4/BLE.c ****         CyBle_AncsInit();
 221:Generated_Source\PSoC4/BLE.c ****     #endif /* CYBLE_ANCS */
 222:Generated_Source\PSoC4/BLE.c **** 	
 223:Generated_Source\PSoC4/BLE.c ****     #ifdef CYBLE_ANS
 224:Generated_Source\PSoC4/BLE.c ****         CyBle_AnsInit();
 225:Generated_Source\PSoC4/BLE.c ****     #endif /* CYBLE_ANS */
 226:Generated_Source\PSoC4/BLE.c ****     
 227:Generated_Source\PSoC4/BLE.c ****     #ifdef CYBLE_BAS
 228:Generated_Source\PSoC4/BLE.c ****         CyBle_BasInit();
 209              		.loc 1 228 0
 210 0004 FFF7FEFF 		bl	CyBle_BasInit
 229:Generated_Source\PSoC4/BLE.c ****     #endif /* CYBLE_BAS */
 230:Generated_Source\PSoC4/BLE.c ****     
 231:Generated_Source\PSoC4/BLE.c ****     #ifdef CYBLE_BCS
 232:Generated_Source\PSoC4/BLE.c ****         CyBle_BcsInit();
 233:Generated_Source\PSoC4/BLE.c ****     #endif /* CYBLE_BCS */
 234:Generated_Source\PSoC4/BLE.c **** 
 235:Generated_Source\PSoC4/BLE.c ****     #ifdef CYBLE_BLS
 236:Generated_Source\PSoC4/BLE.c ****         CyBle_BlsInit();
 237:Generated_Source\PSoC4/BLE.c ****     #endif /* CYBLE_BLS */
 238:Generated_Source\PSoC4/BLE.c ****     
ARM GAS  C:\Users\black\AppData\Local\Temp\ccj7eVXi.s 			page 9


 239:Generated_Source\PSoC4/BLE.c ****     #ifdef CYBLE_BMS
 240:Generated_Source\PSoC4/BLE.c ****         CyBle_BmsInit();
 241:Generated_Source\PSoC4/BLE.c ****     #endif /* CYBLE_BMS */
 242:Generated_Source\PSoC4/BLE.c ****     
 243:Generated_Source\PSoC4/BLE.c ****     #ifdef CYBLE_CGMS
 244:Generated_Source\PSoC4/BLE.c ****         CyBle_CgmsInit();
 245:Generated_Source\PSoC4/BLE.c ****     #endif /* CYBLE_CGMS */
 246:Generated_Source\PSoC4/BLE.c **** 
 247:Generated_Source\PSoC4/BLE.c ****     #ifdef CYBLE_CPS
 248:Generated_Source\PSoC4/BLE.c ****         CyBle_CpsInit();
 249:Generated_Source\PSoC4/BLE.c ****     #endif /* CYBLE_CPS */
 250:Generated_Source\PSoC4/BLE.c **** 
 251:Generated_Source\PSoC4/BLE.c ****     #ifdef CYBLE_CSCS
 252:Generated_Source\PSoC4/BLE.c ****         CyBle_CscsInit();
 253:Generated_Source\PSoC4/BLE.c ****     #endif /* CYBLE_CSCS */
 254:Generated_Source\PSoC4/BLE.c ****     
 255:Generated_Source\PSoC4/BLE.c ****     #ifdef CYBLE_CTS
 256:Generated_Source\PSoC4/BLE.c ****         CyBle_CtsInit();
 257:Generated_Source\PSoC4/BLE.c ****     #endif /* CYBLE_CTS */
 258:Generated_Source\PSoC4/BLE.c **** 
 259:Generated_Source\PSoC4/BLE.c ****     #ifdef CYBLE_CUSTOM
 260:Generated_Source\PSoC4/BLE.c ****         CyBle_CustomInit();
 261:Generated_Source\PSoC4/BLE.c ****     #endif /* CYBLE_CUSTOM */
 262:Generated_Source\PSoC4/BLE.c **** 
 263:Generated_Source\PSoC4/BLE.c ****     #ifdef CYBLE_DIS
 264:Generated_Source\PSoC4/BLE.c ****         CyBle_DisInit();
 211              		.loc 1 264 0
 212 0008 FFF7FEFF 		bl	CyBle_DisInit
 265:Generated_Source\PSoC4/BLE.c ****     #endif /* CYBLE_DIS */
 266:Generated_Source\PSoC4/BLE.c **** 
 267:Generated_Source\PSoC4/BLE.c ****     #ifdef CYBLE_ESS
 268:Generated_Source\PSoC4/BLE.c ****         CyBle_EssInit();
 269:Generated_Source\PSoC4/BLE.c ****     #endif /* CYBLE_ESS */
 270:Generated_Source\PSoC4/BLE.c ****     
 271:Generated_Source\PSoC4/BLE.c ****     #ifdef CYBLE_GLS
 272:Generated_Source\PSoC4/BLE.c ****         CyBle_GlsInit();
 273:Generated_Source\PSoC4/BLE.c ****     #endif /* CYBLE_GLS */
 274:Generated_Source\PSoC4/BLE.c ****     
 275:Generated_Source\PSoC4/BLE.c ****     #ifdef CYBLE_HIDS
 276:Generated_Source\PSoC4/BLE.c ****         CyBle_HidsInit();
 213              		.loc 1 276 0
 214 000c FFF7FEFF 		bl	CyBle_HidsInit
 277:Generated_Source\PSoC4/BLE.c ****     #endif /* CYBLE_HIDS */
 278:Generated_Source\PSoC4/BLE.c **** 
 279:Generated_Source\PSoC4/BLE.c ****     #ifdef CYBLE_HPS
 280:Generated_Source\PSoC4/BLE.c ****         CyBle_HpsInit();
 281:Generated_Source\PSoC4/BLE.c ****     #endif /* CYBLE_HPS */
 282:Generated_Source\PSoC4/BLE.c **** 
 283:Generated_Source\PSoC4/BLE.c ****     #ifdef CYBLE_HRS
 284:Generated_Source\PSoC4/BLE.c ****         CyBle_HrsInit();
 285:Generated_Source\PSoC4/BLE.c ****     #endif /* CYBLE_HRS */
 286:Generated_Source\PSoC4/BLE.c ****     
 287:Generated_Source\PSoC4/BLE.c ****     #ifdef CYBLE_HTS
 288:Generated_Source\PSoC4/BLE.c ****         CyBle_HtsInit();
 289:Generated_Source\PSoC4/BLE.c ****     #endif /* CYBLE_RSCS */
 290:Generated_Source\PSoC4/BLE.c **** 
 291:Generated_Source\PSoC4/BLE.c ****     #ifdef CYBLE_IAS
ARM GAS  C:\Users\black\AppData\Local\Temp\ccj7eVXi.s 			page 10


 292:Generated_Source\PSoC4/BLE.c ****         CyBle_IasInit();
 293:Generated_Source\PSoC4/BLE.c ****     #endif /* CYBLE_IAS */
 294:Generated_Source\PSoC4/BLE.c **** 
 295:Generated_Source\PSoC4/BLE.c ****     #ifdef CYBLE_IPS
 296:Generated_Source\PSoC4/BLE.c ****         CyBle_IpsInit();
 297:Generated_Source\PSoC4/BLE.c ****     #endif /* CYBLE_IPS */
 298:Generated_Source\PSoC4/BLE.c ****     
 299:Generated_Source\PSoC4/BLE.c ****     #ifdef CYBLE_LLS
 300:Generated_Source\PSoC4/BLE.c ****         CyBle_LlsInit();
 301:Generated_Source\PSoC4/BLE.c ****     #endif /* CYBLE_LLS */
 302:Generated_Source\PSoC4/BLE.c **** 
 303:Generated_Source\PSoC4/BLE.c ****     #ifdef CYBLE_LNS
 304:Generated_Source\PSoC4/BLE.c ****         CyBle_LnsInit();
 305:Generated_Source\PSoC4/BLE.c ****     #endif /* CYBLE_LNS */
 306:Generated_Source\PSoC4/BLE.c ****     
 307:Generated_Source\PSoC4/BLE.c ****     #ifdef CYBLE_NDCS
 308:Generated_Source\PSoC4/BLE.c ****         CyBle_NdcsInit();
 309:Generated_Source\PSoC4/BLE.c ****     #endif /* CYBLE_NDCS */
 310:Generated_Source\PSoC4/BLE.c ****     
 311:Generated_Source\PSoC4/BLE.c ****     #ifdef CYBLE_PASS
 312:Generated_Source\PSoC4/BLE.c ****         CyBle_PassInit();
 313:Generated_Source\PSoC4/BLE.c ****     #endif /* CYBLE_PASS */
 314:Generated_Source\PSoC4/BLE.c ****     
 315:Generated_Source\PSoC4/BLE.c ****     #ifdef CYBLE_PLXS
 316:Generated_Source\PSoC4/BLE.c ****         CyBle_PlxsInit();
 317:Generated_Source\PSoC4/BLE.c ****     #endif /* CYBLE_PLXS */
 318:Generated_Source\PSoC4/BLE.c ****     
 319:Generated_Source\PSoC4/BLE.c ****     #ifdef CYBLE_RSCS
 320:Generated_Source\PSoC4/BLE.c ****         CyBle_RscsInit();
 321:Generated_Source\PSoC4/BLE.c ****     #endif /* CYBLE_RSCS */
 322:Generated_Source\PSoC4/BLE.c **** 
 323:Generated_Source\PSoC4/BLE.c ****     #ifdef CYBLE_RTUS
 324:Generated_Source\PSoC4/BLE.c ****         CyBle_RtusInit();
 325:Generated_Source\PSoC4/BLE.c ****     #endif /* CYBLE_RTUS */
 326:Generated_Source\PSoC4/BLE.c **** 
 327:Generated_Source\PSoC4/BLE.c ****     #ifdef CYBLE_SCPS
 328:Generated_Source\PSoC4/BLE.c ****         CyBle_ScpsInit();
 215              		.loc 1 328 0
 216 0010 FFF7FEFF 		bl	CyBle_ScpsInit
 329:Generated_Source\PSoC4/BLE.c ****     #endif /* CYBLE_SCPS */
 330:Generated_Source\PSoC4/BLE.c ****     
 331:Generated_Source\PSoC4/BLE.c ****     #ifdef CYBLE_TPS
 332:Generated_Source\PSoC4/BLE.c ****         CyBle_TpsInit();
 333:Generated_Source\PSoC4/BLE.c ****     #endif /* CYBLE_TPS */
 334:Generated_Source\PSoC4/BLE.c ****     
 335:Generated_Source\PSoC4/BLE.c ****     #ifdef CYBLE_UDS
 336:Generated_Source\PSoC4/BLE.c ****         CyBle_UdsInit();
 337:Generated_Source\PSoC4/BLE.c ****     #endif /* CYBLE_UDS */
 338:Generated_Source\PSoC4/BLE.c **** 
 339:Generated_Source\PSoC4/BLE.c ****     #ifdef CYBLE_WPTS
 340:Generated_Source\PSoC4/BLE.c ****         CyBle_WptsInit();
 341:Generated_Source\PSoC4/BLE.c ****     #endif /* CYBLE_WPTS */
 342:Generated_Source\PSoC4/BLE.c **** 
 343:Generated_Source\PSoC4/BLE.c ****     #ifdef CYBLE_WSS
 344:Generated_Source\PSoC4/BLE.c ****         CyBle_WssInit();
 345:Generated_Source\PSoC4/BLE.c ****     #endif /* CYBLE_WSS */
 346:Generated_Source\PSoC4/BLE.c **** }
ARM GAS  C:\Users\black\AppData\Local\Temp\ccj7eVXi.s 			page 11


 217              		.loc 1 346 0
 218 0014 C046     		nop
 219 0016 BD46     		mov	sp, r7
 220              		@ sp needed
 221 0018 80BD     		pop	{r7, pc}
 222              		.cfi_endproc
 223              	.LFE3:
 224              		.size	CyBle_ServiceInit, .-CyBle_ServiceInit
 225 001a C046     		.section	.rodata
 226              		.align	2
 227              	.LC0:
 228 0000 2400     		.short	36
 229 0002 03       		.byte	3
 230 0003 00       		.space	1
 231 0004 3000     		.short	48
 232 0006 01       		.byte	1
 233 0007 00       		.space	1
 234 0008 2800     		.short	40
 235 000a 02       		.byte	2
 236 000b 00       		.space	1
 237 000c 2400     		.short	36
 238 000e 01       		.byte	1
 239 000f 00       		.space	1
 240 0010 2400     		.short	36
 241 0012 01       		.byte	1
 242 0013 00       		.space	1
 243              		.section	.text.CyBle_Start,"ax",%progbits
 244              		.align	2
 245              		.global	CyBle_Start
 246              		.code	16
 247              		.thumb_func
 248              		.type	CyBle_Start, %function
 249              	CyBle_Start:
 250              	.LFB4:
 347:Generated_Source\PSoC4/BLE.c **** 
 348:Generated_Source\PSoC4/BLE.c **** 
 349:Generated_Source\PSoC4/BLE.c **** /******************************************************************************
 350:Generated_Source\PSoC4/BLE.c **** * Function Name: CyBle_Start
 351:Generated_Source\PSoC4/BLE.c **** ***************************************************************************//**
 352:Generated_Source\PSoC4/BLE.c **** * 
 353:Generated_Source\PSoC4/BLE.c **** *  This function initializes the BLE Stack, which consists of the BLE Stack 
 354:Generated_Source\PSoC4/BLE.c **** *  Manager, BLE Controller, and BLE Host modules. It takes care of initializing
 355:Generated_Source\PSoC4/BLE.c **** *  the Profile layer, schedulers, Timer and other platform related
 356:Generated_Source\PSoC4/BLE.c **** *  resources required for the BLE component. It also registers the callback 
 357:Generated_Source\PSoC4/BLE.c **** *  function for BLE events that will be registered in the BLE stack.
 358:Generated_Source\PSoC4/BLE.c **** * 
 359:Generated_Source\PSoC4/BLE.c **** *  Note that this function does not reset the BLE Stack.
 360:Generated_Source\PSoC4/BLE.c **** * 
 361:Generated_Source\PSoC4/BLE.c **** *  For HCI-Mode of operation, this function will not initialize the BLE Host 
 362:Generated_Source\PSoC4/BLE.c **** *  module.
 363:Generated_Source\PSoC4/BLE.c **** * 
 364:Generated_Source\PSoC4/BLE.c **** *  Calling this function results in the generation of CYBLE_EVT_STACK_ON event
 365:Generated_Source\PSoC4/BLE.c **** *  on successful initialization of the BLE Stack.
 366:Generated_Source\PSoC4/BLE.c **** * 
 367:Generated_Source\PSoC4/BLE.c **** *  \param callbackFunc: Event callback function to receive events from BLE stack.
 368:Generated_Source\PSoC4/BLE.c **** *   CYBLE_CALLBACK_T is a function pointer type.
 369:Generated_Source\PSoC4/BLE.c **** * 
ARM GAS  C:\Users\black\AppData\Local\Temp\ccj7eVXi.s 			page 12


 370:Generated_Source\PSoC4/BLE.c **** * \return
 371:Generated_Source\PSoC4/BLE.c **** *  CYBLE_API_RESULT_T : Return value indicates if the function succeeded or 
 372:Generated_Source\PSoC4/BLE.c **** *  failed. Following are the possible error codes.
 373:Generated_Source\PSoC4/BLE.c **** * 
 374:Generated_Source\PSoC4/BLE.c **** *   <table>
 375:Generated_Source\PSoC4/BLE.c **** *  	  <tr>
 376:Generated_Source\PSoC4/BLE.c **** *       <th>Error codes</th>
 377:Generated_Source\PSoC4/BLE.c **** *       <th>Description</th>
 378:Generated_Source\PSoC4/BLE.c **** *     </tr>
 379:Generated_Source\PSoC4/BLE.c **** *     <tr>
 380:Generated_Source\PSoC4/BLE.c **** *       <td>CYBLE_ERROR_OK</td>
 381:Generated_Source\PSoC4/BLE.c **** *       <td>On successful operation.</td>
 382:Generated_Source\PSoC4/BLE.c **** *     </tr>
 383:Generated_Source\PSoC4/BLE.c **** *     <tr>
 384:Generated_Source\PSoC4/BLE.c **** *       <td>CYBLE_ERROR_INVALID_PARAMETER</td>
 385:Generated_Source\PSoC4/BLE.c **** *       <td>On passing a NULL pointer to the function. 
 386:Generated_Source\PSoC4/BLE.c **** *		</td>
 387:Generated_Source\PSoC4/BLE.c **** *     </tr>
 388:Generated_Source\PSoC4/BLE.c **** *     <tr>
 389:Generated_Source\PSoC4/BLE.c **** *       <td>CYBLE_ERROR_REPEATED_ATTEMPTS</td>
 390:Generated_Source\PSoC4/BLE.c **** *       <td>On invoking this function more than once without calling CyBle_Shutdown() 
 391:Generated_Source\PSoC4/BLE.c **** *           function between calls to this function.</td>
 392:Generated_Source\PSoC4/BLE.c **** *     </tr>
 393:Generated_Source\PSoC4/BLE.c **** *     <tr>
 394:Generated_Source\PSoC4/BLE.c **** *       <td>CYBLE_ERROR_MEMORY_ALLOCATION_FAILED</td>
 395:Generated_Source\PSoC4/BLE.c **** *       <td>There is insufficient memory available.</td>
 396:Generated_Source\PSoC4/BLE.c **** *     </tr>
 397:Generated_Source\PSoC4/BLE.c **** *   </table>
 398:Generated_Source\PSoC4/BLE.c **** * 
 399:Generated_Source\PSoC4/BLE.c **** *  \globalvars
 400:Generated_Source\PSoC4/BLE.c **** *   The CyBle_initVar variable is used to indicate initial
 401:Generated_Source\PSoC4/BLE.c **** *   configuration of this component. The variable is initialized to zero (0u)
 402:Generated_Source\PSoC4/BLE.c **** *   and set to one (1u) the first time CyBle_Start() is called. This
 403:Generated_Source\PSoC4/BLE.c **** *   allows for component initialization without re-initialization in all
 404:Generated_Source\PSoC4/BLE.c **** *   subsequent calls to the CyBle_Start() routine.
 405:Generated_Source\PSoC4/BLE.c **** * 
 406:Generated_Source\PSoC4/BLE.c **** ******************************************************************************/
 407:Generated_Source\PSoC4/BLE.c **** CYBLE_API_RESULT_T CyBle_Start(CYBLE_CALLBACK_T callbackFunc)
 408:Generated_Source\PSoC4/BLE.c **** {
 251              		.loc 1 408 0
 252              		.cfi_startproc
 253              		@ args = 0, pretend = 0, frame = 64
 254              		@ frame_needed = 1, uses_anonymous_args = 0
 255 0000 B0B5     		push	{r4, r5, r7, lr}
 256              		.cfi_def_cfa_offset 16
 257              		.cfi_offset 4, -16
 258              		.cfi_offset 5, -12
 259              		.cfi_offset 7, -8
 260              		.cfi_offset 14, -4
 261 0002 94B0     		sub	sp, sp, #80
 262              		.cfi_def_cfa_offset 96
 263 0004 04AF     		add	r7, sp, #16
 264              		.cfi_def_cfa 7, 80
 265 0006 7860     		str	r0, [r7, #4]
 409:Generated_Source\PSoC4/BLE.c ****     CYBLE_API_RESULT_T apiResult = CYBLE_ERROR_OK;
 266              		.loc 1 409 0
 267 0008 3E23     		movs	r3, #62
ARM GAS  C:\Users\black\AppData\Local\Temp\ccj7eVXi.s 			page 13


 268 000a FB18     		adds	r3, r7, r3
 269 000c 0022     		movs	r2, #0
 270 000e 1A80     		strh	r2, [r3]
 410:Generated_Source\PSoC4/BLE.c ****     
 411:Generated_Source\PSoC4/BLE.c ****     #if(CYBLE_MODE_PROFILE)
 412:Generated_Source\PSoC4/BLE.c ****     
 413:Generated_Source\PSoC4/BLE.c ****     CYBLE_STK_APP_DATA_BUFF_T cyBle_stackDataBuff[CYBLE_STACK_APP_MIN_POOL] = 
 271              		.loc 1 413 0
 272 0010 2823     		movs	r3, #40
 273 0012 FA18     		adds	r2, r7, r3
 274 0014 3D4B     		ldr	r3, .L12
 275 0016 1000     		movs	r0, r2
 276 0018 1900     		movs	r1, r3
 277 001a 1423     		movs	r3, #20
 278 001c 1A00     		movs	r2, r3
 279 001e FFF7FEFF 		bl	memcpy
 414:Generated_Source\PSoC4/BLE.c ****     {
 415:Generated_Source\PSoC4/BLE.c ****         {CYBLE_GATT_MTU_PLUS_L2CAP_MEM_EXT, CYBLE_GATT_MTU_BUFF_COUNT + CYBLE_GATT_MAX_ATTR_BUFF_CO
 416:Generated_Source\PSoC4/BLE.c ****         {CYBLE_L2CAP_PSM_PLUS_L2CAP_MEM_EXT, CYBLE_L2CAP_PSM_COUNT},
 417:Generated_Source\PSoC4/BLE.c ****         {CYBLE_L2CAP_CBFC_PLUS_L2CAP_MEM_EXT, 2u * CYBLE_L2CAP_LOGICAL_CHANNEL_COUNT},
 418:Generated_Source\PSoC4/BLE.c ****         {CYBLE_L2CAP_MTU_PLUS_L2CAP_MEM_EXT, CYBLE_L2CAP_LOGICAL_CHANNEL_COUNT},
 419:Generated_Source\PSoC4/BLE.c ****         {CYBLE_L2CAP_MPS_PLUS_L2CAP_MEM_EXT, CYBLE_L2CAP_LOGICAL_CHANNEL_COUNT * (CYBLE_L2CAP_MTU_M
 420:Generated_Source\PSoC4/BLE.c ****     }; 
 421:Generated_Source\PSoC4/BLE.c **** 
 422:Generated_Source\PSoC4/BLE.c ****     #endif /* CYBLE_MODE_PROFILE */
 423:Generated_Source\PSoC4/BLE.c ****     
 424:Generated_Source\PSoC4/BLE.c ****     /* If not initialized then initialize all the required hardware and software */
 425:Generated_Source\PSoC4/BLE.c ****     if(cyBle_initVar == 0u)
 280              		.loc 1 425 0
 281 0022 3B4B     		ldr	r3, .L12+4
 282 0024 1B78     		ldrb	r3, [r3]
 283 0026 002B     		cmp	r3, #0
 284 0028 04D1     		bne	.L6
 426:Generated_Source\PSoC4/BLE.c ****     {
 427:Generated_Source\PSoC4/BLE.c ****         CyBle_Init();
 285              		.loc 1 427 0
 286 002a FFF7FEFF 		bl	CyBle_Init
 428:Generated_Source\PSoC4/BLE.c ****         cyBle_initVar = 1u;
 287              		.loc 1 428 0
 288 002e 384B     		ldr	r3, .L12+4
 289 0030 0122     		movs	r2, #1
 290 0032 1A70     		strb	r2, [r3]
 291              	.L6:
 429:Generated_Source\PSoC4/BLE.c ****     }
 430:Generated_Source\PSoC4/BLE.c ****     
 431:Generated_Source\PSoC4/BLE.c ****     if(callbackFunc != NULL)
 292              		.loc 1 431 0
 293 0034 7B68     		ldr	r3, [r7, #4]
 294 0036 002B     		cmp	r3, #0
 295 0038 5CD0     		beq	.L7
 432:Generated_Source\PSoC4/BLE.c ****     {
 433:Generated_Source\PSoC4/BLE.c ****         CyBle_ApplCallback = callbackFunc;
 296              		.loc 1 433 0
 297 003a 364B     		ldr	r3, .L12+8
 298 003c 7A68     		ldr	r2, [r7, #4]
 299 003e 1A60     		str	r2, [r3]
 434:Generated_Source\PSoC4/BLE.c ****         
ARM GAS  C:\Users\black\AppData\Local\Temp\ccj7eVXi.s 			page 14


 435:Generated_Source\PSoC4/BLE.c ****     #if(CYBLE_SHARING_MODE_EXPORT)
 436:Generated_Source\PSoC4/BLE.c ****         if(cyBle_stackMemoryRam == NULL)
 437:Generated_Source\PSoC4/BLE.c ****         {
 438:Generated_Source\PSoC4/BLE.c ****             cyBle_stackMemoryRam = (uint8 *)malloc(CYBLE_STACK_RAM_SIZE);
 439:Generated_Source\PSoC4/BLE.c ****             if(cyBle_stackMemoryRam == NULL)
 440:Generated_Source\PSoC4/BLE.c ****             {
 441:Generated_Source\PSoC4/BLE.c ****                 apiResult = CYBLE_ERROR_MEMORY_ALLOCATION_FAILED;
 442:Generated_Source\PSoC4/BLE.c ****             }
 443:Generated_Source\PSoC4/BLE.c ****         }
 444:Generated_Source\PSoC4/BLE.c ****     #endif /* CYBLE_SHARING_MODE_EXPORT */
 445:Generated_Source\PSoC4/BLE.c ****         if(apiResult == CYBLE_ERROR_OK)
 300              		.loc 1 445 0
 301 0040 3E23     		movs	r3, #62
 302 0042 FB18     		adds	r3, r7, r3
 303 0044 1B88     		ldrh	r3, [r3]
 304 0046 002B     		cmp	r3, #0
 305 0048 29D1     		bne	.L8
 306              	.LBB2:
 446:Generated_Source\PSoC4/BLE.c ****         {
 447:Generated_Source\PSoC4/BLE.c ****             CYBLE_DLE_CONFIG_PARAM_T dleConfigParams;
 448:Generated_Source\PSoC4/BLE.c ****             CYBLE_PRIVACY_1_2_CONFIG_PARAM_T privacyConfigParams;
 449:Generated_Source\PSoC4/BLE.c ****             CYBLE_STACK_CONFIG_PARAM_T stackConfig;
 450:Generated_Source\PSoC4/BLE.c ****             uint16 featureHeapReq;
 451:Generated_Source\PSoC4/BLE.c ****             
 452:Generated_Source\PSoC4/BLE.c ****             stackConfig.privacyConfig = &privacyConfigParams;
 307              		.loc 1 452 0
 308 004a 1023     		movs	r3, #16
 309 004c FB18     		adds	r3, r7, r3
 310 004e 1C22     		movs	r2, #28
 311 0050 BA18     		adds	r2, r7, r2
 312 0052 5A60     		str	r2, [r3, #4]
 453:Generated_Source\PSoC4/BLE.c ****             stackConfig.dleConfig = &dleConfigParams;
 313              		.loc 1 453 0
 314 0054 1023     		movs	r3, #16
 315 0056 FB18     		adds	r3, r7, r3
 316 0058 2022     		movs	r2, #32
 317 005a BA18     		adds	r2, r7, r2
 318 005c 1A60     		str	r2, [r3]
 454:Generated_Source\PSoC4/BLE.c ****             
 455:Generated_Source\PSoC4/BLE.c ****             /* Configure default BLE 4.1 features and enabled 4.2 features */
 456:Generated_Source\PSoC4/BLE.c ****             stackConfig.feature_mask = CYBLE_DLE_FEATURE | CYBLE_LL_PRIVACY_FEATURE | 
 319              		.loc 1 456 0
 320 005e 1023     		movs	r3, #16
 321 0060 FB18     		adds	r3, r7, r3
 322 0062 0022     		movs	r2, #0
 323 0064 1A81     		strh	r2, [r3, #8]
 457:Generated_Source\PSoC4/BLE.c ****                                        CYBLE_SECURE_CONN_FEATURE;
 458:Generated_Source\PSoC4/BLE.c **** 
 459:Generated_Source\PSoC4/BLE.c ****             /* Configure DLE */
 460:Generated_Source\PSoC4/BLE.c ****             dleConfigParams.dleMaxTxCapability = CYBLE_LL_MAX_TX_PAYLOAD_SIZE;
 324              		.loc 1 460 0
 325 0066 2023     		movs	r3, #32
 326 0068 FB18     		adds	r3, r7, r3
 327 006a 1B22     		movs	r2, #27
 328 006c 1A80     		strh	r2, [r3]
 461:Generated_Source\PSoC4/BLE.c ****             dleConfigParams.dleMaxRxCapability = CYBLE_LL_MAX_RX_PAYLOAD_SIZE;
 329              		.loc 1 461 0
ARM GAS  C:\Users\black\AppData\Local\Temp\ccj7eVXi.s 			page 15


 330 006e 2023     		movs	r3, #32
 331 0070 FB18     		adds	r3, r7, r3
 332 0072 1B22     		movs	r2, #27
 333 0074 5A80     		strh	r2, [r3, #2]
 462:Generated_Source\PSoC4/BLE.c ****             dleConfigParams.dleNumTxBuffer = CYBLE_LL_DEFAULT_NUM_ACL_TX_PACKETS;
 334              		.loc 1 462 0
 335 0076 2023     		movs	r3, #32
 336 0078 FB18     		adds	r3, r7, r3
 337 007a 0422     		movs	r2, #4
 338 007c 1A71     		strb	r2, [r3, #4]
 463:Generated_Source\PSoC4/BLE.c ****         #if(CYBLE_DLE_FEATURE_ENABLED)
 464:Generated_Source\PSoC4/BLE.c ****             CyBle_EnableDleFeature();              /* Enable DLE code in stack */
 465:Generated_Source\PSoC4/BLE.c ****         #endif /* CYBLE_DLE_FEATURE_ENABLED */
 466:Generated_Source\PSoC4/BLE.c ****         
 467:Generated_Source\PSoC4/BLE.c ****             /* Configure LL Privacy */
 468:Generated_Source\PSoC4/BLE.c ****             privacyConfigParams.resolvingListSize = CYBLE_MAX_RESOLVABLE_DEVICES;
 339              		.loc 1 468 0
 340 007e 1C23     		movs	r3, #28
 341 0080 FB18     		adds	r3, r7, r3
 342 0082 0822     		movs	r2, #8
 343 0084 1A70     		strb	r2, [r3]
 469:Generated_Source\PSoC4/BLE.c ****         #if(CYBLE_LL_PRIVACY_FEATURE_ENABLED)
 470:Generated_Source\PSoC4/BLE.c ****             CyBle_EnablePrivacyFeature();          /* Enable LL Privacy code in stack */
 471:Generated_Source\PSoC4/BLE.c ****         #endif /* CYBLE_LL_PRIVACY_FEATURE_ENABLED */
 472:Generated_Source\PSoC4/BLE.c **** 
 473:Generated_Source\PSoC4/BLE.c ****             apiResult = CyBle_StackSetFeatureConfig(&stackConfig, &featureHeapReq);
 344              		.loc 1 473 0
 345 0086 3E23     		movs	r3, #62
 346 0088 FC18     		adds	r4, r7, r3
 347 008a 0E23     		movs	r3, #14
 348 008c FA18     		adds	r2, r7, r3
 349 008e 1023     		movs	r3, #16
 350 0090 FB18     		adds	r3, r7, r3
 351 0092 1100     		movs	r1, r2
 352 0094 1800     		movs	r0, r3
 353 0096 FFF7FEFF 		bl	CyBle_StackSetFeatureConfig
 354 009a 0300     		movs	r3, r0
 355 009c 2380     		strh	r3, [r4]
 356              	.L8:
 357              	.LBE2:
 474:Generated_Source\PSoC4/BLE.c ****             }
 475:Generated_Source\PSoC4/BLE.c ****     
 476:Generated_Source\PSoC4/BLE.c ****         if(apiResult == CYBLE_ERROR_OK)
 358              		.loc 1 476 0
 359 009e 3E23     		movs	r3, #62
 360 00a0 FB18     		adds	r3, r7, r3
 361 00a2 1B88     		ldrh	r3, [r3]
 362 00a4 002B     		cmp	r3, #0
 363 00a6 29D1     		bne	.L10
 477:Generated_Source\PSoC4/BLE.c ****         {
 478:Generated_Source\PSoC4/BLE.c ****         
 479:Generated_Source\PSoC4/BLE.c ****         #if(CYBLE_MODE_PROFILE)
 480:Generated_Source\PSoC4/BLE.c ****             #if(CYBLE_BONDING_REQUIREMENT == CYBLE_BONDING_YES)
 481:Generated_Source\PSoC4/BLE.c ****                 apiResult = CyBle_StackInit(&CyBle_EventHandler, cyBle_stackMemoryRam, 
 364              		.loc 1 481 0
 365 00a8 3E23     		movs	r3, #62
 366 00aa FC18     		adds	r4, r7, r3
ARM GAS  C:\Users\black\AppData\Local\Temp\ccj7eVXi.s 			page 16


 367 00ac 2823     		movs	r3, #40
 368 00ae FD18     		adds	r5, r7, r3
 369 00b0 AE23     		movs	r3, #174
 370 00b2 1A01     		lsls	r2, r3, #4
 371 00b4 1849     		ldr	r1, .L12+12
 372 00b6 1948     		ldr	r0, .L12+16
 373 00b8 194B     		ldr	r3, .L12+20
 374 00ba 0293     		str	r3, [sp, #8]
 375 00bc 194B     		ldr	r3, .L12+24
 376 00be 0193     		str	r3, [sp, #4]
 377 00c0 0523     		movs	r3, #5
 378 00c2 0093     		str	r3, [sp]
 379 00c4 2B00     		movs	r3, r5
 380 00c6 FFF7FEFF 		bl	CyBle_StackInit
 381 00ca 0300     		movs	r3, r0
 382 00cc 2380     		strh	r3, [r4]
 482:Generated_Source\PSoC4/BLE.c ****                     CYBLE_STACK_RAM_SIZE - CYBLE_GATT_PREPARE_WRITE_BUFF_LEN, cyBle_stackDataBuff, 
 483:Generated_Source\PSoC4/BLE.c ****                     CYBLE_STACK_APP_MIN_POOL, cyBle_flashStorage.stackFlashptr, CYBLE_STACK_FLASH_S
 484:Generated_Source\PSoC4/BLE.c ****             #else
 485:Generated_Source\PSoC4/BLE.c ****                 apiResult = CyBle_StackInit(&CyBle_EventHandler, cyBle_stackMemoryRam, 
 486:Generated_Source\PSoC4/BLE.c ****                     CYBLE_STACK_RAM_SIZE - CYBLE_GATT_PREPARE_WRITE_BUFF_LEN, cyBle_stackDataBuff, 
 487:Generated_Source\PSoC4/BLE.c ****                     CYBLE_STACK_APP_MIN_POOL, NULL, 0u);
 488:Generated_Source\PSoC4/BLE.c ****             #endif  /* CYBLE_BONDING_REQUIREMENT == CYBLE_BONDING_YES */
 489:Generated_Source\PSoC4/BLE.c ****         #else /* HCI mode */
 490:Generated_Source\PSoC4/BLE.c ****             /* The following will perform preparation to use HCI over UART or over
 491:Generated_Source\PSoC4/BLE.c ****                software. But the following fucntions will not initialize the HCI
 492:Generated_Source\PSoC4/BLE.c ****                Transport. This will be done as part of Stack initialization, so
 493:Generated_Source\PSoC4/BLE.c ****                the functions should be called prior CyBle_StackInit().
 494:Generated_Source\PSoC4/BLE.c ****             */
 495:Generated_Source\PSoC4/BLE.c ****             #if (CYBLE_HCI_TYPE == CYBLE_HCI_OVER_UART)
 496:Generated_Source\PSoC4/BLE.c ****                 CyBle_HciUartTransportEnable();
 497:Generated_Source\PSoC4/BLE.c ****             #else
 498:Generated_Source\PSoC4/BLE.c ****                 CyBle_HciSoftTransportEnable();
 499:Generated_Source\PSoC4/BLE.c ****             #endif /* (CYBLE_HCI_TYPE == CYBLE_HCI_OVER_UART) */
 500:Generated_Source\PSoC4/BLE.c ****             /* This will initialize BLE stack for HCI mode operation */
 501:Generated_Source\PSoC4/BLE.c ****             apiResult = CyBle_StackInit(&CyBle_EventHandler, cyBle_stackMemoryRam, CYBLE_STACK_RAM_
 502:Generated_Source\PSoC4/BLE.c ****                 NULL, 0u, NULL, 0u);
 503:Generated_Source\PSoC4/BLE.c ****         #endif /* CYBLE_MODE_PROFILE */
 504:Generated_Source\PSoC4/BLE.c **** 
 505:Generated_Source\PSoC4/BLE.c ****             if(apiResult == CYBLE_ERROR_OK)
 383              		.loc 1 505 0
 384 00ce 3E23     		movs	r3, #62
 385 00d0 FB18     		adds	r3, r7, r3
 386 00d2 1B88     		ldrh	r3, [r3]
 387 00d4 002B     		cmp	r3, #0
 388 00d6 11D1     		bne	.L10
 506:Generated_Source\PSoC4/BLE.c ****             {
 507:Generated_Source\PSoC4/BLE.c ****                 CyBle_SetState(CYBLE_STATE_INITIALIZING);
 389              		.loc 1 507 0
 390 00d8 134B     		ldr	r3, .L12+28
 391 00da 0122     		movs	r2, #1
 392 00dc 1A70     		strb	r2, [r3]
 508:Generated_Source\PSoC4/BLE.c ****                 
 509:Generated_Source\PSoC4/BLE.c ****             #if (CYBLE_GATT_ROLE_CLIENT)
 510:Generated_Source\PSoC4/BLE.c ****                 CyBle_SetClientState(CYBLE_CLIENT_STATE_DISCONNECTED);
 511:Generated_Source\PSoC4/BLE.c ****             #endif /* CYBLE_GATT_ROLE_CLIENT */
 512:Generated_Source\PSoC4/BLE.c ****                 
ARM GAS  C:\Users\black\AppData\Local\Temp\ccj7eVXi.s 			page 17


 513:Generated_Source\PSoC4/BLE.c ****             #if(CYBLE_GATT_ROLE_SERVER)
 514:Generated_Source\PSoC4/BLE.c ****                 apiResult = CyBle_GattsDbRegister(cyBle_gattDB, CYBLE_GATT_DB_INDEX_COUNT, CYBLE_GA
 393              		.loc 1 514 0
 394 00de 3E23     		movs	r3, #62
 395 00e0 FC18     		adds	r4, r7, r3
 396 00e2 124B     		ldr	r3, .L12+32
 397 00e4 3F22     		movs	r2, #63
 398 00e6 3221     		movs	r1, #50
 399 00e8 1800     		movs	r0, r3
 400 00ea FFF7FEFF 		bl	CyBle_GattsDbRegister
 401 00ee 0300     		movs	r3, r0
 402 00f0 2380     		strh	r3, [r4]
 403 00f2 03E0     		b	.L10
 404              	.L7:
 515:Generated_Source\PSoC4/BLE.c ****             #endif /* CYBLE_GATT_ROLE_SERVER */
 516:Generated_Source\PSoC4/BLE.c ****             }
 517:Generated_Source\PSoC4/BLE.c ****         }
 518:Generated_Source\PSoC4/BLE.c ****     }
 519:Generated_Source\PSoC4/BLE.c ****     else
 520:Generated_Source\PSoC4/BLE.c ****     {
 521:Generated_Source\PSoC4/BLE.c ****         apiResult = CYBLE_ERROR_INVALID_PARAMETER;
 405              		.loc 1 521 0
 406 00f4 3E23     		movs	r3, #62
 407 00f6 FB18     		adds	r3, r7, r3
 408 00f8 0122     		movs	r2, #1
 409 00fa 1A80     		strh	r2, [r3]
 410              	.L10:
 522:Generated_Source\PSoC4/BLE.c ****     }
 523:Generated_Source\PSoC4/BLE.c **** 
 524:Generated_Source\PSoC4/BLE.c ****     return (apiResult);
 411              		.loc 1 524 0
 412 00fc 3E23     		movs	r3, #62
 413 00fe FB18     		adds	r3, r7, r3
 414 0100 1B88     		ldrh	r3, [r3]
 525:Generated_Source\PSoC4/BLE.c **** }
 415              		.loc 1 525 0
 416 0102 1800     		movs	r0, r3
 417 0104 BD46     		mov	sp, r7
 418 0106 10B0     		add	sp, sp, #64
 419              		@ sp needed
 420 0108 B0BD     		pop	{r4, r5, r7, pc}
 421              	.L13:
 422 010a C046     		.align	2
 423              	.L12:
 424 010c 00000000 		.word	.LC0
 425 0110 00000000 		.word	cyBle_initVar
 426 0114 00000000 		.word	CyBle_ApplCallback
 427 0118 00000000 		.word	cyBle_stackMemoryRam
 428 011c 00000000 		.word	CyBle_EventHandler
 429 0120 79020000 		.word	633
 430 0124 00000000 		.word	cyBle_flashStorage
 431 0128 00000000 		.word	cyBle_state
 432 012c 00000000 		.word	cyBle_gattDB
 433              		.cfi_endproc
 434              	.LFE4:
 435              		.size	CyBle_Start, .-CyBle_Start
 436              		.section	.text.CyBle_Stop,"ax",%progbits
ARM GAS  C:\Users\black\AppData\Local\Temp\ccj7eVXi.s 			page 18


 437              		.align	2
 438              		.global	CyBle_Stop
 439              		.code	16
 440              		.thumb_func
 441              		.type	CyBle_Stop, %function
 442              	CyBle_Stop:
 443              	.LFB5:
 526:Generated_Source\PSoC4/BLE.c **** 
 527:Generated_Source\PSoC4/BLE.c **** 
 528:Generated_Source\PSoC4/BLE.c **** /******************************************************************************
 529:Generated_Source\PSoC4/BLE.c **** * Function Name: CyBle_Stop
 530:Generated_Source\PSoC4/BLE.c **** ***************************************************************************//**
 531:Generated_Source\PSoC4/BLE.c **** * 
 532:Generated_Source\PSoC4/BLE.c **** *  This function stops any ongoing operation in the BLE Stack and forces the 
 533:Generated_Source\PSoC4/BLE.c **** *  BLE Stack to shut down. The only function that can be called after calling
 534:Generated_Source\PSoC4/BLE.c **** *  this function is CyBle_Start(). 
 535:Generated_Source\PSoC4/BLE.c **** * 
 536:Generated_Source\PSoC4/BLE.c **** * \return
 537:Generated_Source\PSoC4/BLE.c **** *  None
 538:Generated_Source\PSoC4/BLE.c **** * 
 539:Generated_Source\PSoC4/BLE.c **** ******************************************************************************/
 540:Generated_Source\PSoC4/BLE.c **** void CyBle_Stop(void)
 541:Generated_Source\PSoC4/BLE.c **** {
 444              		.loc 1 541 0
 445              		.cfi_startproc
 446              		@ args = 0, pretend = 0, frame = 0
 447              		@ frame_needed = 1, uses_anonymous_args = 0
 448 0000 80B5     		push	{r7, lr}
 449              		.cfi_def_cfa_offset 8
 450              		.cfi_offset 7, -8
 451              		.cfi_offset 14, -4
 452 0002 00AF     		add	r7, sp, #0
 453              		.cfi_def_cfa_register 7
 542:Generated_Source\PSoC4/BLE.c ****     CyBle_Shutdown();                         /* Stop all ongoing activities */
 454              		.loc 1 542 0
 455 0004 FFF7FEFF 		bl	CyBle_Shutdown
 543:Generated_Source\PSoC4/BLE.c ****     CyBle_SetState(CYBLE_STATE_STOPPED);
 456              		.loc 1 543 0
 457 0008 024B     		ldr	r3, .L15
 458 000a 0022     		movs	r2, #0
 459 000c 1A70     		strb	r2, [r3]
 544:Generated_Source\PSoC4/BLE.c ****     #if(CYBLE_SHARING_MODE_EXPORT)
 545:Generated_Source\PSoC4/BLE.c ****         if(cyBle_stackMemoryRam != NULL)
 546:Generated_Source\PSoC4/BLE.c ****         {
 547:Generated_Source\PSoC4/BLE.c ****             free(cyBle_stackMemoryRam);
 548:Generated_Source\PSoC4/BLE.c ****         }
 549:Generated_Source\PSoC4/BLE.c ****     #endif /* CYBLE_SHARING_MODE_EXPORT */
 550:Generated_Source\PSoC4/BLE.c **** }
 460              		.loc 1 550 0
 461 000e C046     		nop
 462 0010 BD46     		mov	sp, r7
 463              		@ sp needed
 464 0012 80BD     		pop	{r7, pc}
 465              	.L16:
 466              		.align	2
 467              	.L15:
 468 0014 00000000 		.word	cyBle_state
ARM GAS  C:\Users\black\AppData\Local\Temp\ccj7eVXi.s 			page 19


 469              		.cfi_endproc
 470              	.LFE5:
 471              		.size	CyBle_Stop, .-CyBle_Stop
 472              		.section	.text.CyBle_StoreBondingData,"ax",%progbits
 473              		.align	2
 474              		.global	CyBle_StoreBondingData
 475              		.code	16
 476              		.thumb_func
 477              		.type	CyBle_StoreBondingData, %function
 478              	CyBle_StoreBondingData:
 479              	.LFB6:
 551:Generated_Source\PSoC4/BLE.c **** 
 552:Generated_Source\PSoC4/BLE.c **** 
 553:Generated_Source\PSoC4/BLE.c **** #if((CYBLE_GAP_ROLE_PERIPHERAL || CYBLE_GAP_ROLE_CENTRAL) && (CYBLE_BONDING_REQUIREMENT == CYBLE_BO
 554:Generated_Source\PSoC4/BLE.c **** 
 555:Generated_Source\PSoC4/BLE.c ****     
 556:Generated_Source\PSoC4/BLE.c **** /******************************************************************************
 557:Generated_Source\PSoC4/BLE.c **** * Function Name: CyBle_StoreBondingData
 558:Generated_Source\PSoC4/BLE.c **** ***************************************************************************//**
 559:Generated_Source\PSoC4/BLE.c **** * 
 560:Generated_Source\PSoC4/BLE.c **** *  This function writes the new bonding data from RAM to the dedicated Flash 
 561:Generated_Source\PSoC4/BLE.c **** *  location as defined by the component. It performs data comparing between RAM
 562:Generated_Source\PSoC4/BLE.c **** *  and Flash before writing to Flash. If there is no change between RAM and Flash
 563:Generated_Source\PSoC4/BLE.c **** *  data, then no write is performed. It writes only one flash row in one call.
 564:Generated_Source\PSoC4/BLE.c **** *  Application should keep calling this function till API return CYBLE_ERROR_OK. 
 565:Generated_Source\PSoC4/BLE.c **** *  This function is available only when Bonding requirement is selected in
 566:Generated_Source\PSoC4/BLE.c **** *  Security settings.    
 567:Generated_Source\PSoC4/BLE.c **** * 
 568:Generated_Source\PSoC4/BLE.c **** *  \param isForceWrite:  If value is set to 0, then stack will check if flash write 
 569:Generated_Source\PSoC4/BLE.c **** *                 is permissible. 
 570:Generated_Source\PSoC4/BLE.c **** *  
 571:Generated_Source\PSoC4/BLE.c **** * \return
 572:Generated_Source\PSoC4/BLE.c **** *  Return value is of type CYBLE_API_RESULT_T.
 573:Generated_Source\PSoC4/BLE.c **** *
 574:Generated_Source\PSoC4/BLE.c **** *   Errors codes                         | Description
 575:Generated_Source\PSoC4/BLE.c **** *   ----------------------------------   | ------------------------------------
 576:Generated_Source\PSoC4/BLE.c **** *   CYBLE_ERROR_OK                       | On successful operation
 577:Generated_Source\PSoC4/BLE.c **** *   CYBLE_ERROR_FLASH_WRITE_NOT_PERMITED | Flash Write is not complete
 578:Generated_Source\PSoC4/BLE.c **** *   CYBLE_ERROR_INVALID_PARAMETER        | Invalid input parameter  
 579:Generated_Source\PSoC4/BLE.c **** *   CYBLE_ERROR_FLASH_WRITE              | Error in flash Write	
 580:Generated_Source\PSoC4/BLE.c ****     
 581:Generated_Source\PSoC4/BLE.c **** *  \sideeffect
 582:Generated_Source\PSoC4/BLE.c **** *   For BLE devices with 128K of Flash memory this API will automatically 
 583:Generated_Source\PSoC4/BLE.c **** *   modify the clock settings for the device.
 584:Generated_Source\PSoC4/BLE.c **** *   Writing to flash requires changes to be done to the IMO (set to 48 MHz)
 585:Generated_Source\PSoC4/BLE.c **** *   and HFCLK (source set to IMO) settings. The configuration is restored before
 586:Generated_Source\PSoC4/BLE.c **** *   returning. This will impact the operation of most of the hardware in the
 587:Generated_Source\PSoC4/BLE.c **** *   device.
 588:Generated_Source\PSoC4/BLE.c **** * 
 589:Generated_Source\PSoC4/BLE.c **** *  \globalvars
 590:Generated_Source\PSoC4/BLE.c **** *   The cyBle_pendingFlashWrite variable is used to detect status
 591:Generated_Source\PSoC4/BLE.c **** *   of pending write to flash operation for stack data and CCCD.
 592:Generated_Source\PSoC4/BLE.c **** *   This API automatically clears pending bits after write operation complete.
 593:Generated_Source\PSoC4/BLE.c **** *     
 594:Generated_Source\PSoC4/BLE.c **** ******************************************************************************/
 595:Generated_Source\PSoC4/BLE.c **** CYBLE_API_RESULT_T CyBle_StoreBondingData(uint8 isForceWrite)
 596:Generated_Source\PSoC4/BLE.c **** {
ARM GAS  C:\Users\black\AppData\Local\Temp\ccj7eVXi.s 			page 20


 480              		.loc 1 596 0
 481              		.cfi_startproc
 482              		@ args = 0, pretend = 0, frame = 72
 483              		@ frame_needed = 1, uses_anonymous_args = 0
 484 0000 90B5     		push	{r4, r7, lr}
 485              		.cfi_def_cfa_offset 12
 486              		.cfi_offset 4, -12
 487              		.cfi_offset 7, -8
 488              		.cfi_offset 14, -4
 489 0002 93B0     		sub	sp, sp, #76
 490              		.cfi_def_cfa_offset 88
 491 0004 00AF     		add	r7, sp, #0
 492              		.cfi_def_cfa_register 7
 493 0006 0200     		movs	r2, r0
 494 0008 FB1D     		adds	r3, r7, #7
 495 000a 1A70     		strb	r2, [r3]
 597:Generated_Source\PSoC4/BLE.c ****     CYBLE_API_RESULT_T apiResult = CYBLE_ERROR_OK;
 496              		.loc 1 597 0
 497 000c 4623     		movs	r3, #70
 498 000e FB18     		adds	r3, r7, r3
 499 0010 0022     		movs	r2, #0
 500 0012 1A80     		strh	r2, [r3]
 598:Generated_Source\PSoC4/BLE.c ****     
 599:Generated_Source\PSoC4/BLE.c ****     /* Store Stack data */
 600:Generated_Source\PSoC4/BLE.c ****     if((cyBle_pendingFlashWrite & CYBLE_PENDING_STACK_FLASH_WRITE_BIT) != 0u)
 501              		.loc 1 600 0
 502 0014 614B     		ldr	r3, .L27
 503 0016 1B78     		ldrb	r3, [r3]
 504 0018 1A00     		movs	r2, r3
 505 001a 0123     		movs	r3, #1
 506 001c 1340     		ands	r3, r2
 507 001e 1ED0     		beq	.L18
 601:Generated_Source\PSoC4/BLE.c ****     {
 602:Generated_Source\PSoC4/BLE.c ****         apiResult = CyBle_StoreStackData(isForceWrite);
 508              		.loc 1 602 0
 509 0020 4623     		movs	r3, #70
 510 0022 FC18     		adds	r4, r7, r3
 511 0024 FB1D     		adds	r3, r7, #7
 512 0026 1B78     		ldrb	r3, [r3]
 513 0028 1800     		movs	r0, r3
 514 002a FFF7FEFF 		bl	CyBle_StoreStackData
 515 002e 0300     		movs	r3, r0
 516 0030 2380     		strh	r3, [r4]
 603:Generated_Source\PSoC4/BLE.c ****         if(apiResult == CYBLE_ERROR_OK)
 517              		.loc 1 603 0
 518 0032 4623     		movs	r3, #70
 519 0034 FB18     		adds	r3, r7, r3
 520 0036 1B88     		ldrh	r3, [r3]
 521 0038 002B     		cmp	r3, #0
 522 003a 10D1     		bne	.L18
 604:Generated_Source\PSoC4/BLE.c ****         {
 605:Generated_Source\PSoC4/BLE.c ****             cyBle_pendingFlashWrite &= (uint8)~CYBLE_PENDING_STACK_FLASH_WRITE_BIT;
 523              		.loc 1 605 0
 524 003c 574B     		ldr	r3, .L27
 525 003e 1B78     		ldrb	r3, [r3]
 526 0040 0122     		movs	r2, #1
 527 0042 9343     		bics	r3, r2
ARM GAS  C:\Users\black\AppData\Local\Temp\ccj7eVXi.s 			page 21


 528 0044 DAB2     		uxtb	r2, r3
 529 0046 554B     		ldr	r3, .L27
 530 0048 1A70     		strb	r2, [r3]
 606:Generated_Source\PSoC4/BLE.c ****             /* Change apiResult if there are more pending data to store */
 607:Generated_Source\PSoC4/BLE.c ****             if((cyBle_pendingFlashWrite & CYBLE_PENDING_CCCD_FLASH_WRITE_BIT) != 0u)
 531              		.loc 1 607 0
 532 004a 544B     		ldr	r3, .L27
 533 004c 1B78     		ldrb	r3, [r3]
 534 004e 1A00     		movs	r2, r3
 535 0050 0223     		movs	r3, #2
 536 0052 1340     		ands	r3, r2
 537 0054 03D0     		beq	.L18
 608:Generated_Source\PSoC4/BLE.c ****             {
 609:Generated_Source\PSoC4/BLE.c ****                 apiResult = CYBLE_ERROR_FLASH_WRITE_NOT_PERMITED;
 538              		.loc 1 609 0
 539 0056 4623     		movs	r3, #70
 540 0058 FB18     		adds	r3, r7, r3
 541 005a 2822     		movs	r2, #40
 542 005c 1A80     		strh	r2, [r3]
 543              	.L18:
 610:Generated_Source\PSoC4/BLE.c ****             }
 611:Generated_Source\PSoC4/BLE.c ****         }
 612:Generated_Source\PSoC4/BLE.c ****     }
 613:Generated_Source\PSoC4/BLE.c **** #if(CYBLE_GATT_DB_CCCD_COUNT != 0u)
 614:Generated_Source\PSoC4/BLE.c ****     /* Store CCCD values */
 615:Generated_Source\PSoC4/BLE.c ****     if( ((apiResult == CYBLE_ERROR_OK) || (isForceWrite != 0u)) && 
 544              		.loc 1 615 0
 545 005e 4623     		movs	r3, #70
 546 0060 FB18     		adds	r3, r7, r3
 547 0062 1B88     		ldrh	r3, [r3]
 548 0064 002B     		cmp	r3, #0
 549 0066 03D0     		beq	.L19
 550              		.loc 1 615 0 is_stmt 0 discriminator 2
 551 0068 FB1D     		adds	r3, r7, #7
 552 006a 1B78     		ldrb	r3, [r3]
 553 006c 002B     		cmp	r3, #0
 554 006e 2CD0     		beq	.L20
 555              	.L19:
 616:Generated_Source\PSoC4/BLE.c ****         ((cyBle_pendingFlashWrite & CYBLE_PENDING_CCCD_FLASH_WRITE_BIT) != 0u) &&
 556              		.loc 1 616 0 is_stmt 1 discriminator 3
 557 0070 4A4B     		ldr	r3, .L27
 558 0072 1B78     		ldrb	r3, [r3]
 559 0074 1A00     		movs	r2, r3
 560 0076 0223     		movs	r3, #2
 561 0078 1340     		ands	r3, r2
 615:Generated_Source\PSoC4/BLE.c ****         ((cyBle_pendingFlashWrite & CYBLE_PENDING_CCCD_FLASH_WRITE_BIT) != 0u) &&
 562              		.loc 1 615 0 discriminator 3
 563 007a 26D0     		beq	.L20
 617:Generated_Source\PSoC4/BLE.c ****         (cyBle_connHandle.bdHandle <= CYBLE_GAP_MAX_BONDED_DEVICE))
 564              		.loc 1 617 0
 565 007c 484B     		ldr	r3, .L27+4
 566 007e 1B78     		ldrb	r3, [r3]
 616:Generated_Source\PSoC4/BLE.c ****         ((cyBle_pendingFlashWrite & CYBLE_PENDING_CCCD_FLASH_WRITE_BIT) != 0u) &&
 567              		.loc 1 616 0
 568 0080 042B     		cmp	r3, #4
 569 0082 22D8     		bhi	.L20
 618:Generated_Source\PSoC4/BLE.c ****     {
ARM GAS  C:\Users\black\AppData\Local\Temp\ccj7eVXi.s 			page 22


 619:Generated_Source\PSoC4/BLE.c ****         apiResult = CyBle_StoreAppData(cyBle_attValuesCCCD, cyBle_flashStorage.attValuesCCCDFlashMe
 620:Generated_Source\PSoC4/BLE.c ****                         cyBle_connHandle.bdHandle], CYBLE_GATT_DB_CCCD_COUNT, isForceWrite);
 570              		.loc 1 620 0
 571 0084 464B     		ldr	r3, .L27+4
 572 0086 1B78     		ldrb	r3, [r3]
 619:Generated_Source\PSoC4/BLE.c ****                         cyBle_connHandle.bdHandle], CYBLE_GATT_DB_CCCD_COUNT, isForceWrite);
 573              		.loc 1 619 0
 574 0088 1A00     		movs	r2, r3
 575 008a 1300     		movs	r3, r2
 576 008c 9B00     		lsls	r3, r3, #2
 577 008e 9B18     		adds	r3, r3, r2
 578 0090 5B00     		lsls	r3, r3, #1
 579 0092 9E22     		movs	r2, #158
 580 0094 9200     		lsls	r2, r2, #2
 581 0096 9A18     		adds	r2, r3, r2
 582 0098 424B     		ldr	r3, .L27+8
 583 009a D318     		adds	r3, r2, r3
 584 009c 591C     		adds	r1, r3, #1
 585 009e 4623     		movs	r3, #70
 586 00a0 FC18     		adds	r4, r7, r3
 587 00a2 FB1D     		adds	r3, r7, #7
 588 00a4 1B78     		ldrb	r3, [r3]
 589 00a6 4048     		ldr	r0, .L27+12
 590 00a8 0A22     		movs	r2, #10
 591 00aa FFF7FEFF 		bl	CyBle_StoreAppData
 592 00ae 0300     		movs	r3, r0
 593 00b0 2380     		strh	r3, [r4]
 621:Generated_Source\PSoC4/BLE.c ****         if(apiResult == CYBLE_ERROR_OK)
 594              		.loc 1 621 0
 595 00b2 4623     		movs	r3, #70
 596 00b4 FB18     		adds	r3, r7, r3
 597 00b6 1B88     		ldrh	r3, [r3]
 598 00b8 002B     		cmp	r3, #0
 599 00ba 06D1     		bne	.L20
 622:Generated_Source\PSoC4/BLE.c ****         {
 623:Generated_Source\PSoC4/BLE.c ****             cyBle_pendingFlashWrite &= (uint8)~CYBLE_PENDING_CCCD_FLASH_WRITE_BIT;
 600              		.loc 1 623 0
 601 00bc 374B     		ldr	r3, .L27
 602 00be 1B78     		ldrb	r3, [r3]
 603 00c0 0222     		movs	r2, #2
 604 00c2 9343     		bics	r3, r2
 605 00c4 DAB2     		uxtb	r2, r3
 606 00c6 354B     		ldr	r3, .L27
 607 00c8 1A70     		strb	r2, [r3]
 608              	.L20:
 624:Generated_Source\PSoC4/BLE.c ****         }
 625:Generated_Source\PSoC4/BLE.c ****     }
 626:Generated_Source\PSoC4/BLE.c ****     /* Clear requested CCCD values */
 627:Generated_Source\PSoC4/BLE.c ****     if( ((apiResult == CYBLE_ERROR_OK) || (isForceWrite != 0u)) && 
 609              		.loc 1 627 0
 610 00ca 4623     		movs	r3, #70
 611 00cc FB18     		adds	r3, r7, r3
 612 00ce 1B88     		ldrh	r3, [r3]
 613 00d0 002B     		cmp	r3, #0
 614 00d2 03D0     		beq	.L21
 615              		.loc 1 627 0 is_stmt 0 discriminator 2
 616 00d4 FB1D     		adds	r3, r7, #7
ARM GAS  C:\Users\black\AppData\Local\Temp\ccj7eVXi.s 			page 23


 617 00d6 1B78     		ldrb	r3, [r3]
 618 00d8 002B     		cmp	r3, #0
 619 00da 57D0     		beq	.L22
 620              	.L21:
 628:Generated_Source\PSoC4/BLE.c ****         ((cyBle_pendingFlashWrite & CYBLE_PENDING_CCCD_FLASH_CLEAR_MASK) != 0u) )
 621              		.loc 1 628 0 is_stmt 1 discriminator 3
 622 00dc 2F4B     		ldr	r3, .L27
 623 00de 1B78     		ldrb	r3, [r3]
 624 00e0 1A00     		movs	r2, r3
 625 00e2 0C23     		movs	r3, #12
 626 00e4 1340     		ands	r3, r2
 627:Generated_Source\PSoC4/BLE.c ****         ((cyBle_pendingFlashWrite & CYBLE_PENDING_CCCD_FLASH_CLEAR_MASK) != 0u) )
 627              		.loc 1 627 0 discriminator 3
 628 00e6 51D0     		beq	.L22
 629:Generated_Source\PSoC4/BLE.c ****     {
 630:Generated_Source\PSoC4/BLE.c ****         if((cyBle_pendingFlashWrite & CYBLE_PENDING_CCCD_FLASH_CLEAR_ALL_BIT) != 0u)
 629              		.loc 1 630 0
 630 00e8 2C4B     		ldr	r3, .L27
 631 00ea 1B78     		ldrb	r3, [r3]
 632 00ec 1A00     		movs	r2, r3
 633 00ee 0823     		movs	r3, #8
 634 00f0 1340     		ands	r3, r2
 635 00f2 1FD0     		beq	.L23
 636              	.LBB3:
 631:Generated_Source\PSoC4/BLE.c ****         {
 632:Generated_Source\PSoC4/BLE.c ****             /* Remove cccd values for all bonded devices */
 633:Generated_Source\PSoC4/BLE.c ****             uint8 defaultValuesCCCD[CYBLE_GAP_MAX_BONDED_DEVICE + 1u][CYBLE_GATT_DB_CCCD_COUNT];
 634:Generated_Source\PSoC4/BLE.c ****             
 635:Generated_Source\PSoC4/BLE.c ****             (void)memset(defaultValuesCCCD, 0, sizeof(defaultValuesCCCD));
 637              		.loc 1 635 0
 638 00f4 0823     		movs	r3, #8
 639 00f6 FB18     		adds	r3, r7, r3
 640 00f8 3222     		movs	r2, #50
 641 00fa 0021     		movs	r1, #0
 642 00fc 1800     		movs	r0, r3
 643 00fe FFF7FEFF 		bl	memset
 636:Generated_Source\PSoC4/BLE.c **** 
 637:Generated_Source\PSoC4/BLE.c ****             apiResult = CyBle_StoreAppData((uint8 *)defaultValuesCCCD, 
 644              		.loc 1 637 0
 645 0102 4623     		movs	r3, #70
 646 0104 FC18     		adds	r4, r7, r3
 647 0106 FB1D     		adds	r3, r7, #7
 648 0108 1B78     		ldrb	r3, [r3]
 649 010a 2849     		ldr	r1, .L27+16
 650 010c 0822     		movs	r2, #8
 651 010e B818     		adds	r0, r7, r2
 652 0110 3222     		movs	r2, #50
 653 0112 FFF7FEFF 		bl	CyBle_StoreAppData
 654 0116 0300     		movs	r3, r0
 655 0118 2380     		strh	r3, [r4]
 638:Generated_Source\PSoC4/BLE.c ****                 (const uint8 *)cyBle_flashStorage.attValuesCCCDFlashMemory, sizeof(defaultValuesCCC
 639:Generated_Source\PSoC4/BLE.c ****             if(apiResult == CYBLE_ERROR_OK)
 656              		.loc 1 639 0
 657 011a 4623     		movs	r3, #70
 658 011c FB18     		adds	r3, r7, r3
 659 011e 1B88     		ldrh	r3, [r3]
 660 0120 002B     		cmp	r3, #0
ARM GAS  C:\Users\black\AppData\Local\Temp\ccj7eVXi.s 			page 24


 661 0122 33D1     		bne	.L22
 640:Generated_Source\PSoC4/BLE.c ****             {
 641:Generated_Source\PSoC4/BLE.c ****                 cyBle_pendingFlashWrite &= (uint8)~CYBLE_PENDING_CCCD_FLASH_CLEAR_ALL_BIT;
 662              		.loc 1 641 0
 663 0124 1D4B     		ldr	r3, .L27
 664 0126 1B78     		ldrb	r3, [r3]
 665 0128 0822     		movs	r2, #8
 666 012a 9343     		bics	r3, r2
 667 012c DAB2     		uxtb	r2, r3
 668 012e 1B4B     		ldr	r3, .L27
 669 0130 1A70     		strb	r2, [r3]
 670 0132 2BE0     		b	.L22
 671              	.L23:
 672              	.LBE3:
 673              	.LBB4:
 642:Generated_Source\PSoC4/BLE.c ****             }
 643:Generated_Source\PSoC4/BLE.c ****         }
 644:Generated_Source\PSoC4/BLE.c ****         else /* Remove cccd values for particular device */
 645:Generated_Source\PSoC4/BLE.c ****         {
 646:Generated_Source\PSoC4/BLE.c ****             uint8 defaultValuesCCCD[CYBLE_GATT_DB_CCCD_COUNT] = {0u};
 674              		.loc 1 646 0
 675 0134 3C23     		movs	r3, #60
 676 0136 FB18     		adds	r3, r7, r3
 677 0138 1800     		movs	r0, r3
 678 013a 0A23     		movs	r3, #10
 679 013c 1A00     		movs	r2, r3
 680 013e 0021     		movs	r1, #0
 681 0140 FFF7FEFF 		bl	memset
 647:Generated_Source\PSoC4/BLE.c ****             
 648:Generated_Source\PSoC4/BLE.c ****             apiResult = CyBle_StoreAppData(defaultValuesCCCD, cyBle_flashStorage.attValuesCCCDFlash
 682              		.loc 1 648 0
 683 0144 1A4B     		ldr	r3, .L27+20
 684 0146 1B78     		ldrb	r3, [r3]
 685 0148 1A00     		movs	r2, r3
 686 014a 1300     		movs	r3, r2
 687 014c 9B00     		lsls	r3, r3, #2
 688 014e 9B18     		adds	r3, r3, r2
 689 0150 5B00     		lsls	r3, r3, #1
 690 0152 9E22     		movs	r2, #158
 691 0154 9200     		lsls	r2, r2, #2
 692 0156 9A18     		adds	r2, r3, r2
 693 0158 124B     		ldr	r3, .L27+8
 694 015a D318     		adds	r3, r2, r3
 695 015c 591C     		adds	r1, r3, #1
 696 015e 4623     		movs	r3, #70
 697 0160 FC18     		adds	r4, r7, r3
 698 0162 FB1D     		adds	r3, r7, #7
 699 0164 1B78     		ldrb	r3, [r3]
 700 0166 3C22     		movs	r2, #60
 701 0168 B818     		adds	r0, r7, r2
 702 016a 0A22     		movs	r2, #10
 703 016c FFF7FEFF 		bl	CyBle_StoreAppData
 704 0170 0300     		movs	r3, r0
 705 0172 2380     		strh	r3, [r4]
 649:Generated_Source\PSoC4/BLE.c ****                                     cyBle_pendingFlashClearCccdHandle], CYBLE_GATT_DB_CCCD_COUNT, i
 650:Generated_Source\PSoC4/BLE.c ****             if(apiResult == CYBLE_ERROR_OK)
 706              		.loc 1 650 0
ARM GAS  C:\Users\black\AppData\Local\Temp\ccj7eVXi.s 			page 25


 707 0174 4623     		movs	r3, #70
 708 0176 FB18     		adds	r3, r7, r3
 709 0178 1B88     		ldrh	r3, [r3]
 710 017a 002B     		cmp	r3, #0
 711 017c 06D1     		bne	.L22
 651:Generated_Source\PSoC4/BLE.c ****             {
 652:Generated_Source\PSoC4/BLE.c ****                 cyBle_pendingFlashWrite &= (uint8)~CYBLE_PENDING_CCCD_FLASH_CLEAR_BIT;
 712              		.loc 1 652 0
 713 017e 074B     		ldr	r3, .L27
 714 0180 1B78     		ldrb	r3, [r3]
 715 0182 0422     		movs	r2, #4
 716 0184 9343     		bics	r3, r2
 717 0186 DAB2     		uxtb	r2, r3
 718 0188 044B     		ldr	r3, .L27
 719 018a 1A70     		strb	r2, [r3]
 720              	.L22:
 721              	.LBE4:
 653:Generated_Source\PSoC4/BLE.c ****             }
 654:Generated_Source\PSoC4/BLE.c ****         }
 655:Generated_Source\PSoC4/BLE.c ****     }
 656:Generated_Source\PSoC4/BLE.c **** #endif /* CYBLE_GATT_DB_CCCD_COUNT != 0u */
 657:Generated_Source\PSoC4/BLE.c ****     return(apiResult);
 722              		.loc 1 657 0
 723 018c 4623     		movs	r3, #70
 724 018e FB18     		adds	r3, r7, r3
 725 0190 1B88     		ldrh	r3, [r3]
 658:Generated_Source\PSoC4/BLE.c **** }
 726              		.loc 1 658 0
 727 0192 1800     		movs	r0, r3
 728 0194 BD46     		mov	sp, r7
 729 0196 13B0     		add	sp, sp, #76
 730              		@ sp needed
 731 0198 90BD     		pop	{r4, r7, pc}
 732              	.L28:
 733 019a C046     		.align	2
 734              	.L27:
 735 019c 00000000 		.word	cyBle_pendingFlashWrite
 736 01a0 00000000 		.word	cyBle_connHandle
 737 01a4 00000000 		.word	cyBle_flashStorage
 738 01a8 00000000 		.word	cyBle_attValuesCCCD
 739 01ac 79020000 		.word	cyBle_flashStorage+633
 740 01b0 24000000 		.word	cyBle_pendingFlashClearCccdHandle
 741              		.cfi_endproc
 742              	.LFE6:
 743              		.size	CyBle_StoreBondingData, .-CyBle_StoreBondingData
 744              		.section	.text.CyBle_GapRemoveBondedDevice,"ax",%progbits
 745              		.align	2
 746              		.global	CyBle_GapRemoveBondedDevice
 747              		.code	16
 748              		.thumb_func
 749              		.type	CyBle_GapRemoveBondedDevice, %function
 750              	CyBle_GapRemoveBondedDevice:
 751              	.LFB7:
 659:Generated_Source\PSoC4/BLE.c **** 
 660:Generated_Source\PSoC4/BLE.c **** 
 661:Generated_Source\PSoC4/BLE.c **** /******************************************************************************
 662:Generated_Source\PSoC4/BLE.c **** * Function Name: CyBle_GapRemoveBondedDevice
ARM GAS  C:\Users\black\AppData\Local\Temp\ccj7eVXi.s 			page 26


 663:Generated_Source\PSoC4/BLE.c **** ***************************************************************************//**
 664:Generated_Source\PSoC4/BLE.c **** * 
 665:Generated_Source\PSoC4/BLE.c **** *  This function marks the device untrusted. It removes the bonding information
 666:Generated_Source\PSoC4/BLE.c **** *  of the device including CCCD values. This function removes device from the
 667:Generated_Source\PSoC4/BLE.c **** *  white list also when autopopulate white list with bonded devices option is
 668:Generated_Source\PSoC4/BLE.c **** *  enabled.
 669:Generated_Source\PSoC4/BLE.c **** * 
 670:Generated_Source\PSoC4/BLE.c **** *  This function is available only when Bonding requirement is selected in
 671:Generated_Source\PSoC4/BLE.c **** *  Security settings.    
 672:Generated_Source\PSoC4/BLE.c **** *
 673:Generated_Source\PSoC4/BLE.c **** *  \param bdAddr: Pointer to peer device address, of type CYBLE_GAP_BD_ADDR_T.
 674:Generated_Source\PSoC4/BLE.c **** *                 If device address is set to 0, then all devices shall be
 675:Generated_Source\PSoC4/BLE.c **** *                 removed from trusted list and white list.
 676:Generated_Source\PSoC4/BLE.c **** *
 677:Generated_Source\PSoC4/BLE.c **** * \return
 678:Generated_Source\PSoC4/BLE.c **** *  CYBLE_API_RESULT_T : Return value indicates if the function succeeded or
 679:Generated_Source\PSoC4/BLE.c **** *  failed. Following are the possible error codes.
 680:Generated_Source\PSoC4/BLE.c **** *
 681:Generated_Source\PSoC4/BLE.c **** *   Errors codes                     | Description
 682:Generated_Source\PSoC4/BLE.c **** *   ---------------------------------| ------------------------------------
 683:Generated_Source\PSoC4/BLE.c **** *   CYBLE_ERROR_OK                   | On successful operation.
 684:Generated_Source\PSoC4/BLE.c **** *   CYBLE_ERROR_INVALID_PARAMETER    | On specifying NULL as input parameter for 'bdAddr'.
 685:Generated_Source\PSoC4/BLE.c **** *   CYBLE_ERROR_INVALID_OPERATION    | Whitelist is already in use or there is pending write to fla
 686:Generated_Source\PSoC4/BLE.c **** *   CYBLE_ERROR_NO_DEVICE_ENTITY     | Device does not exist in the bond list.
 687:Generated_Source\PSoC4/BLE.c **** *
 688:Generated_Source\PSoC4/BLE.c **** *  \globalvars
 689:Generated_Source\PSoC4/BLE.c **** *   The bdHandle is set in cyBle_pendingFlashWrite variable to indicate that
 690:Generated_Source\PSoC4/BLE.c **** *   data should be stored to flash by CyBle_StoreBondingData afterwards. 
 691:Generated_Source\PSoC4/BLE.c **** *     
 692:Generated_Source\PSoC4/BLE.c **** ******************************************************************************/
 693:Generated_Source\PSoC4/BLE.c **** CYBLE_API_RESULT_T CyBle_GapRemoveBondedDevice(CYBLE_GAP_BD_ADDR_T* bdAddr)
 694:Generated_Source\PSoC4/BLE.c **** {
 752              		.loc 1 694 0
 753              		.cfi_startproc
 754              		@ args = 0, pretend = 0, frame = 24
 755              		@ frame_needed = 1, uses_anonymous_args = 0
 756 0000 90B5     		push	{r4, r7, lr}
 757              		.cfi_def_cfa_offset 12
 758              		.cfi_offset 4, -12
 759              		.cfi_offset 7, -8
 760              		.cfi_offset 14, -4
 761 0002 87B0     		sub	sp, sp, #28
 762              		.cfi_def_cfa_offset 40
 763 0004 00AF     		add	r7, sp, #0
 764              		.cfi_def_cfa_register 7
 765 0006 7860     		str	r0, [r7, #4]
 695:Generated_Source\PSoC4/BLE.c ****     CYBLE_API_RESULT_T apiResult = CYBLE_ERROR_OK;
 766              		.loc 1 695 0
 767 0008 1623     		movs	r3, #22
 768 000a FB18     		adds	r3, r7, r3
 769 000c 0022     		movs	r2, #0
 770 000e 1A80     		strh	r2, [r3]
 696:Generated_Source\PSoC4/BLE.c ****     
 697:Generated_Source\PSoC4/BLE.c ****     if(cyBle_pendingFlashWrite == 0u)
 771              		.loc 1 697 0
 772 0010 284B     		ldr	r3, .L36
 773 0012 1B78     		ldrb	r3, [r3]
ARM GAS  C:\Users\black\AppData\Local\Temp\ccj7eVXi.s 			page 27


 774 0014 002B     		cmp	r3, #0
 775 0016 42D1     		bne	.L30
 776              	.LBB5:
 698:Generated_Source\PSoC4/BLE.c ****     {
 699:Generated_Source\PSoC4/BLE.c ****         
 700:Generated_Source\PSoC4/BLE.c ****     #if(CYBLE_GATT_DB_CCCD_COUNT != 0u)
 701:Generated_Source\PSoC4/BLE.c ****         /* Request to clear CCCD values which will be done by CyBle_StoreBondingData API */
 702:Generated_Source\PSoC4/BLE.c ****         uint8 bDevHandle;
 703:Generated_Source\PSoC4/BLE.c ****         CYBLE_GAP_BD_ADDR_T invalidBdAddr = {{0u,0u,0u,0u,0u,0u}, 0u};
 777              		.loc 1 703 0
 778 0018 0C23     		movs	r3, #12
 779 001a FB18     		adds	r3, r7, r3
 780 001c 1800     		movs	r0, r3
 781 001e 0723     		movs	r3, #7
 782 0020 1A00     		movs	r2, r3
 783 0022 0021     		movs	r1, #0
 784 0024 FFF7FEFF 		bl	memset
 704:Generated_Source\PSoC4/BLE.c **** 
 705:Generated_Source\PSoC4/BLE.c ****         if(memcmp(((uint8 *) &(bdAddr->bdAddr)), ((uint8 *) &(invalidBdAddr.bdAddr)), CYBLE_GAP_BD_
 785              		.loc 1 705 0
 786 0028 7B68     		ldr	r3, [r7, #4]
 787 002a 0C22     		movs	r2, #12
 788 002c B918     		adds	r1, r7, r2
 789 002e 0622     		movs	r2, #6
 790 0030 1800     		movs	r0, r3
 791 0032 FFF7FEFF 		bl	memcmp
 792 0036 031E     		subs	r3, r0, #0
 793 0038 07D1     		bne	.L31
 706:Generated_Source\PSoC4/BLE.c **** 	    {
 707:Generated_Source\PSoC4/BLE.c ****             /* Request to remove all bonded devices by cyBle_StoreBondingData API */
 708:Generated_Source\PSoC4/BLE.c ****             cyBle_pendingFlashWrite |= CYBLE_PENDING_CCCD_FLASH_CLEAR_ALL_BIT;
 794              		.loc 1 708 0
 795 003a 1E4B     		ldr	r3, .L36
 796 003c 1B78     		ldrb	r3, [r3]
 797 003e 0822     		movs	r2, #8
 798 0040 1343     		orrs	r3, r2
 799 0042 DAB2     		uxtb	r2, r3
 800 0044 1B4B     		ldr	r3, .L36
 801 0046 1A70     		strb	r2, [r3]
 802 0048 1BE0     		b	.L32
 803              	.L31:
 709:Generated_Source\PSoC4/BLE.c ****         }
 710:Generated_Source\PSoC4/BLE.c ****         else
 711:Generated_Source\PSoC4/BLE.c ****         {
 712:Generated_Source\PSoC4/BLE.c ****             /* Get the BD handle from Address */
 713:Generated_Source\PSoC4/BLE.c ****             apiResult = CyBle_GapGetPeerBdHandle(&bDevHandle, bdAddr);
 804              		.loc 1 713 0
 805 004a 1623     		movs	r3, #22
 806 004c FC18     		adds	r4, r7, r3
 807 004e 7A68     		ldr	r2, [r7, #4]
 808 0050 1523     		movs	r3, #21
 809 0052 FB18     		adds	r3, r7, r3
 810 0054 1100     		movs	r1, r2
 811 0056 1800     		movs	r0, r3
 812 0058 FFF7FEFF 		bl	CyBle_GapGetPeerBdHandle
 813 005c 0300     		movs	r3, r0
 814 005e 2380     		strh	r3, [r4]
ARM GAS  C:\Users\black\AppData\Local\Temp\ccj7eVXi.s 			page 28


 714:Generated_Source\PSoC4/BLE.c ****             if(apiResult == CYBLE_ERROR_OK)
 815              		.loc 1 714 0
 816 0060 1623     		movs	r3, #22
 817 0062 FB18     		adds	r3, r7, r3
 818 0064 1B88     		ldrh	r3, [r3]
 819 0066 002B     		cmp	r3, #0
 820 0068 0BD1     		bne	.L32
 715:Generated_Source\PSoC4/BLE.c ****             {
 716:Generated_Source\PSoC4/BLE.c ****                 /* Store BD handle to clear cccd values by CyBle_StoreBondingData API */
 717:Generated_Source\PSoC4/BLE.c ****                 cyBle_pendingFlashWrite |= CYBLE_PENDING_CCCD_FLASH_CLEAR_BIT;
 821              		.loc 1 717 0
 822 006a 124B     		ldr	r3, .L36
 823 006c 1B78     		ldrb	r3, [r3]
 824 006e 0422     		movs	r2, #4
 825 0070 1343     		orrs	r3, r2
 826 0072 DAB2     		uxtb	r2, r3
 827 0074 0F4B     		ldr	r3, .L36
 828 0076 1A70     		strb	r2, [r3]
 718:Generated_Source\PSoC4/BLE.c ****                 cyBle_pendingFlashClearCccdHandle = bDevHandle;
 829              		.loc 1 718 0
 830 0078 1523     		movs	r3, #21
 831 007a FB18     		adds	r3, r7, r3
 832 007c 1A78     		ldrb	r2, [r3]
 833 007e 0E4B     		ldr	r3, .L36+4
 834 0080 1A70     		strb	r2, [r3]
 835              	.L32:
 719:Generated_Source\PSoC4/BLE.c ****             }
 720:Generated_Source\PSoC4/BLE.c ****         }
 721:Generated_Source\PSoC4/BLE.c ****     #endif /* CYBLE_GATT_DB_CCCD_COUNT != 0u */
 722:Generated_Source\PSoC4/BLE.c ****         if(apiResult == CYBLE_ERROR_OK)
 836              		.loc 1 722 0
 837 0082 1623     		movs	r3, #22
 838 0084 FB18     		adds	r3, r7, r3
 839 0086 1B88     		ldrh	r3, [r3]
 840 0088 002B     		cmp	r3, #0
 841 008a 0CD1     		bne	.L34
 723:Generated_Source\PSoC4/BLE.c ****         {
 724:Generated_Source\PSoC4/BLE.c ****             apiResult = CyBle_GapRemoveDeviceFromWhiteList(bdAddr);
 842              		.loc 1 724 0
 843 008c 1623     		movs	r3, #22
 844 008e FC18     		adds	r4, r7, r3
 845 0090 7B68     		ldr	r3, [r7, #4]
 846 0092 1800     		movs	r0, r3
 847 0094 FFF7FEFF 		bl	CyBle_GapRemoveDeviceFromWhiteList
 848 0098 0300     		movs	r3, r0
 849 009a 2380     		strh	r3, [r4]
 850 009c 03E0     		b	.L34
 851              	.L30:
 852              	.LBE5:
 725:Generated_Source\PSoC4/BLE.c ****         }
 726:Generated_Source\PSoC4/BLE.c ****     }
 727:Generated_Source\PSoC4/BLE.c ****     else
 728:Generated_Source\PSoC4/BLE.c ****     {
 729:Generated_Source\PSoC4/BLE.c ****         apiResult = CYBLE_ERROR_INVALID_OPERATION;
 853              		.loc 1 729 0
 854 009e 1623     		movs	r3, #22
 855 00a0 FB18     		adds	r3, r7, r3
ARM GAS  C:\Users\black\AppData\Local\Temp\ccj7eVXi.s 			page 29


 856 00a2 0222     		movs	r2, #2
 857 00a4 1A80     		strh	r2, [r3]
 858              	.L34:
 730:Generated_Source\PSoC4/BLE.c ****     }
 731:Generated_Source\PSoC4/BLE.c ****     
 732:Generated_Source\PSoC4/BLE.c ****     return(apiResult);
 859              		.loc 1 732 0
 860 00a6 1623     		movs	r3, #22
 861 00a8 FB18     		adds	r3, r7, r3
 862 00aa 1B88     		ldrh	r3, [r3]
 733:Generated_Source\PSoC4/BLE.c **** }
 863              		.loc 1 733 0
 864 00ac 1800     		movs	r0, r3
 865 00ae BD46     		mov	sp, r7
 866 00b0 07B0     		add	sp, sp, #28
 867              		@ sp needed
 868 00b2 90BD     		pop	{r4, r7, pc}
 869              	.L37:
 870              		.align	2
 871              	.L36:
 872 00b4 00000000 		.word	cyBle_pendingFlashWrite
 873 00b8 24000000 		.word	cyBle_pendingFlashClearCccdHandle
 874              		.cfi_endproc
 875              	.LFE7:
 876              		.size	CyBle_GapRemoveBondedDevice, .-CyBle_GapRemoveBondedDevice
 877              		.section	.text.CyBle_GappStartAdvertisement,"ax",%progbits
 878              		.align	2
 879              		.global	CyBle_GappStartAdvertisement
 880              		.code	16
 881              		.thumb_func
 882              		.type	CyBle_GappStartAdvertisement, %function
 883              	CyBle_GappStartAdvertisement:
 884              	.LFB8:
 734:Generated_Source\PSoC4/BLE.c **** 
 735:Generated_Source\PSoC4/BLE.c **** 
 736:Generated_Source\PSoC4/BLE.c **** #endif /* (CYBLE_GAP_ROLE_PERIPHERAL || CYBLE_GAP_ROLE_CENTRAL) && (CYBLE_BONDING_REQUIREMENT == CY
 737:Generated_Source\PSoC4/BLE.c **** 
 738:Generated_Source\PSoC4/BLE.c **** 
 739:Generated_Source\PSoC4/BLE.c **** #if(CYBLE_GAP_ROLE_PERIPHERAL || CYBLE_GAP_ROLE_BROADCASTER)
 740:Generated_Source\PSoC4/BLE.c **** 
 741:Generated_Source\PSoC4/BLE.c ****     /******************************************************************************
 742:Generated_Source\PSoC4/BLE.c ****     *  Function Name: CyBle_GappStartAdvertisement
 743:Generated_Source\PSoC4/BLE.c ****     ***************************************************************************//**
 744:Generated_Source\PSoC4/BLE.c ****     *     
 745:Generated_Source\PSoC4/BLE.c ****     *  This function is used to start the advertisement using the advertisement data 
 746:Generated_Source\PSoC4/BLE.c ****     *  set in the component customizer's GUI. After invoking this API, the device 
 747:Generated_Source\PSoC4/BLE.c ****     *  will be available for connection by the devices configured for GAP central 
 748:Generated_Source\PSoC4/BLE.c ****     *  role. It is only included if the device is configured for GAP Peripheral or 
 749:Generated_Source\PSoC4/BLE.c ****     *  GAP Peripheral + Central role.
 750:Generated_Source\PSoC4/BLE.c ****     *  
 751:Generated_Source\PSoC4/BLE.c ****     *  On start of advertisement, GAP Peripheral receives the
 752:Generated_Source\PSoC4/BLE.c ****     *  CYBLE_EVT_GAPP_ADVERTISEMENT_START_STOP event. The following events are 
 753:Generated_Source\PSoC4/BLE.c ****     *  possible on invoking this function:
 754:Generated_Source\PSoC4/BLE.c ****     *  
 755:Generated_Source\PSoC4/BLE.c ****     *  * CYBLE_EVT_GAP_DEVICE_CONNECTED - If the device connects to a GAP Central and 
 756:Generated_Source\PSoC4/BLE.c ****     *    Link Layer Privacy is disabled in component customizer.
 757:Generated_Source\PSoC4/BLE.c ****     *  * CYBLE_EVT_GAP_ENHANCE_CONN_COMPLETE - If the device connects to a GAP Central and 
ARM GAS  C:\Users\black\AppData\Local\Temp\ccj7eVXi.s 			page 30


 758:Generated_Source\PSoC4/BLE.c ****     *    Link Layer Privacy is enabled in component customizer.
 759:Generated_Source\PSoC4/BLE.c ****     *  * CYBLE_EVT_TIMEOUT: If no device in GAP Central mode connects to this 
 760:Generated_Source\PSoC4/BLE.c ****     *                       device within the specified timeout limit. Stack 
 761:Generated_Source\PSoC4/BLE.c ****     *                       automatically initiate stop advertising when Slow 
 762:Generated_Source\PSoC4/BLE.c ****     *                       advertising was initiated, or starts Slow advertising
 763:Generated_Source\PSoC4/BLE.c ****     *                       after Fast advertising timeout occur.
 764:Generated_Source\PSoC4/BLE.c ****     *  * CYBLE_EVT_GAPP_ADVERTISEMENT_START_STOP: If device started or stopped
 765:Generated_Source\PSoC4/BLE.c ****     *                                               advertising. Use CyBle_GetState()
 766:Generated_Source\PSoC4/BLE.c ****     *                                               to determine the state. Sequential 
 767:Generated_Source\PSoC4/BLE.c ****     *                                               advertising could be started when
 768:Generated_Source\PSoC4/BLE.c ****     *                                               CYBLE_STATE_DISCONNECTED state is
 769:Generated_Source\PSoC4/BLE.c ****     *                                               returned.
 770:Generated_Source\PSoC4/BLE.c ****     * 
 771:Generated_Source\PSoC4/BLE.c ****     *  \param advertisingIntervalType: Fast or slow advertising interval with timings
 772:Generated_Source\PSoC4/BLE.c ****     *                                 entered in Advertising settings section of the
 773:Generated_Source\PSoC4/BLE.c ****     *                                 customizer.
 774:Generated_Source\PSoC4/BLE.c ****     *  * CYBLE_ADVERTISING_FAST   0x00u
 775:Generated_Source\PSoC4/BLE.c ****     *  * CYBLE_ADVERTISING_SLOW   0x01u
 776:Generated_Source\PSoC4/BLE.c ****     *  * CYBLE_ADVERTISING_CUSTOM 0x02u
 777:Generated_Source\PSoC4/BLE.c ****     * 
 778:Generated_Source\PSoC4/BLE.c ****     * \return
 779:Generated_Source\PSoC4/BLE.c ****     *  CYBLE_API_RESULT_T : Return value indicates if the function succeeded or
 780:Generated_Source\PSoC4/BLE.c ****     *  failed. Following are the possible error codes.
 781:Generated_Source\PSoC4/BLE.c ****     * 
 782:Generated_Source\PSoC4/BLE.c ****     *   Errors codes                      |  Description
 783:Generated_Source\PSoC4/BLE.c ****     *   --------------------------------- |  --------------------------------
 784:Generated_Source\PSoC4/BLE.c ****     *   CYBLE_ERROR_OK                    |  On successful operation.
 785:Generated_Source\PSoC4/BLE.c ****     *   CYBLE_ERROR_INVALID_PARAMETER     |  On passing an invalid parameter.
 786:Generated_Source\PSoC4/BLE.c ****     *   CYBLE_ERROR_INVALID_STATE         |  On calling this API not in Disconnected state.
 787:Generated_Source\PSoC4/BLE.c ****     *
 788:Generated_Source\PSoC4/BLE.c ****     * 
 789:Generated_Source\PSoC4/BLE.c ****     *******************************************************************************/
 790:Generated_Source\PSoC4/BLE.c ****     CYBLE_API_RESULT_T CyBle_GappStartAdvertisement(uint8 advertisingIntervalType)
 791:Generated_Source\PSoC4/BLE.c ****     {
 885              		.loc 1 791 0
 886              		.cfi_startproc
 887              		@ args = 0, pretend = 0, frame = 16
 888              		@ frame_needed = 1, uses_anonymous_args = 0
 889 0000 90B5     		push	{r4, r7, lr}
 890              		.cfi_def_cfa_offset 12
 891              		.cfi_offset 4, -12
 892              		.cfi_offset 7, -8
 893              		.cfi_offset 14, -4
 894 0002 85B0     		sub	sp, sp, #20
 895              		.cfi_def_cfa_offset 32
 896 0004 00AF     		add	r7, sp, #0
 897              		.cfi_def_cfa_register 7
 898 0006 0200     		movs	r2, r0
 899 0008 FB1D     		adds	r3, r7, #7
 900 000a 1A70     		strb	r2, [r3]
 792:Generated_Source\PSoC4/BLE.c ****         CYBLE_API_RESULT_T apiResult;
 793:Generated_Source\PSoC4/BLE.c ****         
 794:Generated_Source\PSoC4/BLE.c ****         if(advertisingIntervalType > CYBLE_ADVERTISING_CUSTOM)
 901              		.loc 1 794 0
 902 000c FB1D     		adds	r3, r7, #7
 903 000e 1B78     		ldrb	r3, [r3]
 904 0010 022B     		cmp	r3, #2
ARM GAS  C:\Users\black\AppData\Local\Temp\ccj7eVXi.s 			page 31


 905 0012 04D9     		bls	.L39
 795:Generated_Source\PSoC4/BLE.c ****         {
 796:Generated_Source\PSoC4/BLE.c ****             apiResult = CYBLE_ERROR_INVALID_PARAMETER;
 906              		.loc 1 796 0
 907 0014 0E23     		movs	r3, #14
 908 0016 FB18     		adds	r3, r7, r3
 909 0018 0122     		movs	r2, #1
 910 001a 1A80     		strh	r2, [r3]
 911 001c 4AE0     		b	.L40
 912              	.L39:
 797:Generated_Source\PSoC4/BLE.c ****         }
 798:Generated_Source\PSoC4/BLE.c ****         else if((CYBLE_STATE_DISCONNECTED == CyBle_GetState()) && ((cyBle_eventHandlerFlag & CYBLE_
 913              		.loc 1 798 0
 914 001e 294B     		ldr	r3, .L46
 915 0020 1B78     		ldrb	r3, [r3]
 916 0022 042B     		cmp	r3, #4
 917 0024 41D1     		bne	.L41
 918              		.loc 1 798 0 is_stmt 0 discriminator 1
 919 0026 284B     		ldr	r3, .L46+4
 920 0028 1B78     		ldrb	r3, [r3]
 921 002a DBB2     		uxtb	r3, r3
 922 002c 1A00     		movs	r2, r3
 923 002e 0423     		movs	r3, #4
 924 0030 1340     		ands	r3, r2
 925 0032 3AD1     		bne	.L41
 799:Generated_Source\PSoC4/BLE.c ****         {   
 800:Generated_Source\PSoC4/BLE.c ****             if(advertisingIntervalType == CYBLE_ADVERTISING_FAST)
 926              		.loc 1 800 0 is_stmt 1
 927 0034 FB1D     		adds	r3, r7, #7
 928 0036 1B78     		ldrb	r3, [r3]
 929 0038 002B     		cmp	r3, #0
 930 003a 0BD1     		bne	.L42
 801:Generated_Source\PSoC4/BLE.c ****             {
 802:Generated_Source\PSoC4/BLE.c ****                 cyBle_discoveryModeInfo.advTo = CYBLE_FAST_ADV_TIMEOUT;
 931              		.loc 1 802 0
 932 003c 234B     		ldr	r3, .L46+8
 933 003e 1E22     		movs	r2, #30
 934 0040 1A82     		strh	r2, [r3, #16]
 803:Generated_Source\PSoC4/BLE.c ****                 cyBle_discoveryModeInfo.advParam->advIntvMin = CYBLE_FAST_ADV_INT_MIN;
 935              		.loc 1 803 0
 936 0042 224B     		ldr	r3, .L46+8
 937 0044 5B68     		ldr	r3, [r3, #4]
 938 0046 2022     		movs	r2, #32
 939 0048 1A80     		strh	r2, [r3]
 804:Generated_Source\PSoC4/BLE.c ****                 cyBle_discoveryModeInfo.advParam->advIntvMax = CYBLE_FAST_ADV_INT_MAX;
 940              		.loc 1 804 0
 941 004a 204B     		ldr	r3, .L46+8
 942 004c 5B68     		ldr	r3, [r3, #4]
 943 004e 2022     		movs	r2, #32
 944 0050 5A80     		strh	r2, [r3, #2]
 945 0052 10E0     		b	.L43
 946              	.L42:
 805:Generated_Source\PSoC4/BLE.c ****             }
 806:Generated_Source\PSoC4/BLE.c ****             else if(advertisingIntervalType == CYBLE_ADVERTISING_SLOW)
 947              		.loc 1 806 0
 948 0054 FB1D     		adds	r3, r7, #7
 949 0056 1B78     		ldrb	r3, [r3]
ARM GAS  C:\Users\black\AppData\Local\Temp\ccj7eVXi.s 			page 32


 950 0058 012B     		cmp	r3, #1
 951 005a 0CD1     		bne	.L43
 807:Generated_Source\PSoC4/BLE.c ****             {
 808:Generated_Source\PSoC4/BLE.c ****                 cyBle_discoveryModeInfo.advTo = CYBLE_SLOW_ADV_TIMEOUT;
 952              		.loc 1 808 0
 953 005c 1B4B     		ldr	r3, .L46+8
 954 005e 9622     		movs	r2, #150
 955 0060 1A82     		strh	r2, [r3, #16]
 809:Generated_Source\PSoC4/BLE.c ****                 cyBle_discoveryModeInfo.advParam->advIntvMin = CYBLE_SLOW_ADV_INT_MIN;
 956              		.loc 1 809 0
 957 0062 1A4B     		ldr	r3, .L46+8
 958 0064 5B68     		ldr	r3, [r3, #4]
 959 0066 C822     		movs	r2, #200
 960 0068 D200     		lsls	r2, r2, #3
 961 006a 1A80     		strh	r2, [r3]
 810:Generated_Source\PSoC4/BLE.c ****                 cyBle_discoveryModeInfo.advParam->advIntvMax = CYBLE_SLOW_ADV_INT_MAX;
 962              		.loc 1 810 0
 963 006c 174B     		ldr	r3, .L46+8
 964 006e 5B68     		ldr	r3, [r3, #4]
 965 0070 C822     		movs	r2, #200
 966 0072 D200     		lsls	r2, r2, #3
 967 0074 5A80     		strh	r2, [r3, #2]
 968              	.L43:
 811:Generated_Source\PSoC4/BLE.c ****             }       
 812:Generated_Source\PSoC4/BLE.c ****             else /* Do not update advertising intervals */
 813:Generated_Source\PSoC4/BLE.c ****             {
 814:Generated_Source\PSoC4/BLE.c ****             }
 815:Generated_Source\PSoC4/BLE.c ****             cyBle_advertisingIntervalType = advertisingIntervalType;
 969              		.loc 1 815 0
 970 0076 164B     		ldr	r3, .L46+12
 971 0078 FA1D     		adds	r2, r7, #7
 972 007a 1278     		ldrb	r2, [r2]
 973 007c 1A70     		strb	r2, [r3]
 816:Generated_Source\PSoC4/BLE.c ****             apiResult = CyBle_GappEnterDiscoveryMode(&cyBle_discoveryModeInfo);
 974              		.loc 1 816 0
 975 007e 0E23     		movs	r3, #14
 976 0080 FC18     		adds	r4, r7, r3
 977 0082 124B     		ldr	r3, .L46+8
 978 0084 1800     		movs	r0, r3
 979 0086 FFF7FEFF 		bl	CyBle_GappEnterDiscoveryMode
 980 008a 0300     		movs	r3, r0
 981 008c 2380     		strh	r3, [r4]
 817:Generated_Source\PSoC4/BLE.c ****         
 818:Generated_Source\PSoC4/BLE.c ****             if(apiResult == CYBLE_ERROR_OK)
 982              		.loc 1 818 0
 983 008e 0E23     		movs	r3, #14
 984 0090 FB18     		adds	r3, r7, r3
 985 0092 1B88     		ldrh	r3, [r3]
 986 0094 002B     		cmp	r3, #0
 987 0096 0DD1     		bne	.L40
 819:Generated_Source\PSoC4/BLE.c ****             {
 820:Generated_Source\PSoC4/BLE.c ****                 cyBle_eventHandlerFlag |= CYBLE_START_FLAG;
 988              		.loc 1 820 0
 989 0098 0B4B     		ldr	r3, .L46+4
 990 009a 1B78     		ldrb	r3, [r3]
 991 009c DBB2     		uxtb	r3, r3
 992 009e 0422     		movs	r2, #4
ARM GAS  C:\Users\black\AppData\Local\Temp\ccj7eVXi.s 			page 33


 993 00a0 1343     		orrs	r3, r2
 994 00a2 DAB2     		uxtb	r2, r3
 995 00a4 084B     		ldr	r3, .L46+4
 996 00a6 1A70     		strb	r2, [r3]
 818:Generated_Source\PSoC4/BLE.c ****             {
 997              		.loc 1 818 0
 998 00a8 04E0     		b	.L40
 999              	.L41:
 821:Generated_Source\PSoC4/BLE.c ****             }
 822:Generated_Source\PSoC4/BLE.c ****         }
 823:Generated_Source\PSoC4/BLE.c ****         else
 824:Generated_Source\PSoC4/BLE.c ****         {
 825:Generated_Source\PSoC4/BLE.c ****             apiResult = CYBLE_ERROR_INVALID_STATE;
 1000              		.loc 1 825 0
 1001 00aa 0E23     		movs	r3, #14
 1002 00ac FB18     		adds	r3, r7, r3
 1003 00ae 0422     		movs	r2, #4
 1004 00b0 FF32     		adds	r2, r2, #255
 1005 00b2 1A80     		strh	r2, [r3]
 1006              	.L40:
 826:Generated_Source\PSoC4/BLE.c ****         }
 827:Generated_Source\PSoC4/BLE.c **** 
 828:Generated_Source\PSoC4/BLE.c ****         return (apiResult);
 1007              		.loc 1 828 0
 1008 00b4 0E23     		movs	r3, #14
 1009 00b6 FB18     		adds	r3, r7, r3
 1010 00b8 1B88     		ldrh	r3, [r3]
 829:Generated_Source\PSoC4/BLE.c ****     }
 1011              		.loc 1 829 0
 1012 00ba 1800     		movs	r0, r3
 1013 00bc BD46     		mov	sp, r7
 1014 00be 05B0     		add	sp, sp, #20
 1015              		@ sp needed
 1016 00c0 90BD     		pop	{r4, r7, pc}
 1017              	.L47:
 1018 00c2 C046     		.align	2
 1019              	.L46:
 1020 00c4 00000000 		.word	cyBle_state
 1021 00c8 00000000 		.word	cyBle_eventHandlerFlag
 1022 00cc 00000000 		.word	cyBle_discoveryModeInfo
 1023 00d0 00000000 		.word	cyBle_advertisingIntervalType
 1024              		.cfi_endproc
 1025              	.LFE8:
 1026              		.size	CyBle_GappStartAdvertisement, .-CyBle_GappStartAdvertisement
 1027              		.section	.text.CyBle_GappStopAdvertisement,"ax",%progbits
 1028              		.align	2
 1029              		.global	CyBle_GappStopAdvertisement
 1030              		.code	16
 1031              		.thumb_func
 1032              		.type	CyBle_GappStopAdvertisement, %function
 1033              	CyBle_GappStopAdvertisement:
 1034              	.LFB9:
 830:Generated_Source\PSoC4/BLE.c **** 
 831:Generated_Source\PSoC4/BLE.c ****     
 832:Generated_Source\PSoC4/BLE.c ****     /******************************************************************************
 833:Generated_Source\PSoC4/BLE.c ****     * Function Name: CyBle_GappStopAdvertisement
 834:Generated_Source\PSoC4/BLE.c ****     ***************************************************************************//**
ARM GAS  C:\Users\black\AppData\Local\Temp\ccj7eVXi.s 			page 34


 835:Generated_Source\PSoC4/BLE.c ****     * 
 836:Generated_Source\PSoC4/BLE.c ****     *   This function can be used to exit from discovery mode. After the execution 
 837:Generated_Source\PSoC4/BLE.c ****     *   of this function, there will no longer be any advertisements. On stopping 
 838:Generated_Source\PSoC4/BLE.c ****     *   advertising, GAP Peripheral receives CYBLE_EVT_GAPP_ADVERTISEMENT_START_STOP
 839:Generated_Source\PSoC4/BLE.c ****     *   event. It is expected that the application layer tracks the function call 
 840:Generated_Source\PSoC4/BLE.c ****     *   performed before occurrence of this event as this event can occur on making 
 841:Generated_Source\PSoC4/BLE.c ****     *   a call to Cy_BleGappStartAdvertisement(), CyBle_GappEnterDiscoveryMode(), 
 842:Generated_Source\PSoC4/BLE.c ****     *   or CyBle_GappStartAdvertisement() functions as well.
 843:Generated_Source\PSoC4/BLE.c ****     *   
 844:Generated_Source\PSoC4/BLE.c ****     *   The following event occurs on invoking this function:
 845:Generated_Source\PSoC4/BLE.c ****     *   * CYBLE_EVT_GAPP_ADVERTISEMENT_START_STOP
 846:Generated_Source\PSoC4/BLE.c ****     * 
 847:Generated_Source\PSoC4/BLE.c ****     *  \return
 848:Generated_Source\PSoC4/BLE.c ****     *   None
 849:Generated_Source\PSoC4/BLE.c ****     * 
 850:Generated_Source\PSoC4/BLE.c ****     *******************************************************************************/
 851:Generated_Source\PSoC4/BLE.c ****     void CyBle_GappStopAdvertisement(void)
 852:Generated_Source\PSoC4/BLE.c ****     {
 1035              		.loc 1 852 0
 1036              		.cfi_startproc
 1037              		@ args = 0, pretend = 0, frame = 0
 1038              		@ frame_needed = 1, uses_anonymous_args = 0
 1039 0000 80B5     		push	{r7, lr}
 1040              		.cfi_def_cfa_offset 8
 1041              		.cfi_offset 7, -8
 1042              		.cfi_offset 14, -4
 1043 0002 00AF     		add	r7, sp, #0
 1044              		.cfi_def_cfa_register 7
 853:Generated_Source\PSoC4/BLE.c ****         CyBle_GappExitDiscoveryMode();
 1045              		.loc 1 853 0
 1046 0004 FFF7FEFF 		bl	CyBle_GappExitDiscoveryMode
 854:Generated_Source\PSoC4/BLE.c ****         cyBle_eventHandlerFlag |= CYBLE_STOP_FLAG;
 1047              		.loc 1 854 0
 1048 0008 054B     		ldr	r3, .L49
 1049 000a 1B78     		ldrb	r3, [r3]
 1050 000c DBB2     		uxtb	r3, r3
 1051 000e 0822     		movs	r2, #8
 1052 0010 1343     		orrs	r3, r2
 1053 0012 DAB2     		uxtb	r2, r3
 1054 0014 024B     		ldr	r3, .L49
 1055 0016 1A70     		strb	r2, [r3]
 855:Generated_Source\PSoC4/BLE.c ****     }
 1056              		.loc 1 855 0
 1057 0018 C046     		nop
 1058 001a BD46     		mov	sp, r7
 1059              		@ sp needed
 1060 001c 80BD     		pop	{r7, pc}
 1061              	.L50:
 1062 001e C046     		.align	2
 1063              	.L49:
 1064 0020 00000000 		.word	cyBle_eventHandlerFlag
 1065              		.cfi_endproc
 1066              	.LFE9:
 1067              		.size	CyBle_GappStopAdvertisement, .-CyBle_GappStopAdvertisement
 1068              		.section	.text.CyBle_ChangeAdDeviceAddress,"ax",%progbits
 1069              		.align	2
 1070              		.global	CyBle_ChangeAdDeviceAddress
ARM GAS  C:\Users\black\AppData\Local\Temp\ccj7eVXi.s 			page 35


 1071              		.code	16
 1072              		.thumb_func
 1073              		.type	CyBle_ChangeAdDeviceAddress, %function
 1074              	CyBle_ChangeAdDeviceAddress:
 1075              	.LFB10:
 856:Generated_Source\PSoC4/BLE.c ****     
 857:Generated_Source\PSoC4/BLE.c ****     
 858:Generated_Source\PSoC4/BLE.c ****     /******************************************************************************
 859:Generated_Source\PSoC4/BLE.c ****     * Function Name: CyBle_ChangeAdDeviceAddress
 860:Generated_Source\PSoC4/BLE.c ****     ***************************************************************************//**
 861:Generated_Source\PSoC4/BLE.c ****     * 
 862:Generated_Source\PSoC4/BLE.c ****     *  This API is used to set the Bluetooth device address into the advertisement 
 863:Generated_Source\PSoC4/BLE.c ****     *  or scan response data structure.
 864:Generated_Source\PSoC4/BLE.c ****     * 
 865:Generated_Source\PSoC4/BLE.c ****     *  \param bdAddr: Bluetooth Device address. The variable is of type CYBLE_GAP_BD_ADDR_T
 866:Generated_Source\PSoC4/BLE.c ****     *  \param dest: 0 - selects advertisement structure, not zero value selects scan 
 867:Generated_Source\PSoC4/BLE.c ****     *               response structure.
 868:Generated_Source\PSoC4/BLE.c ****     * 
 869:Generated_Source\PSoC4/BLE.c ****     * \return
 870:Generated_Source\PSoC4/BLE.c ****     *  None
 871:Generated_Source\PSoC4/BLE.c ****     *  
 872:Generated_Source\PSoC4/BLE.c ****     *******************************************************************************/
 873:Generated_Source\PSoC4/BLE.c ****     void CyBle_ChangeAdDeviceAddress(const CYBLE_GAP_BD_ADDR_T* bdAddr, uint8 dest)
 874:Generated_Source\PSoC4/BLE.c ****     {
 1076              		.loc 1 874 0
 1077              		.cfi_startproc
 1078              		@ args = 0, pretend = 0, frame = 16
 1079              		@ frame_needed = 1, uses_anonymous_args = 0
 1080 0000 80B5     		push	{r7, lr}
 1081              		.cfi_def_cfa_offset 8
 1082              		.cfi_offset 7, -8
 1083              		.cfi_offset 14, -4
 1084 0002 84B0     		sub	sp, sp, #16
 1085              		.cfi_def_cfa_offset 24
 1086 0004 00AF     		add	r7, sp, #0
 1087              		.cfi_def_cfa_register 7
 1088 0006 7860     		str	r0, [r7, #4]
 1089 0008 0A00     		movs	r2, r1
 1090 000a FB1C     		adds	r3, r7, #3
 1091 000c 1A70     		strb	r2, [r3]
 875:Generated_Source\PSoC4/BLE.c ****         uint8 i;
 876:Generated_Source\PSoC4/BLE.c ****         uint8 *destBuffer = NULL;
 1092              		.loc 1 876 0
 1093 000e 0023     		movs	r3, #0
 1094 0010 BB60     		str	r3, [r7, #8]
 877:Generated_Source\PSoC4/BLE.c ****         
 878:Generated_Source\PSoC4/BLE.c ****         if(dest == 0u)      /* Destination - advertising structure */
 879:Generated_Source\PSoC4/BLE.c ****         {
 880:Generated_Source\PSoC4/BLE.c ****             #ifdef CYBLE_ADV_PKT_INDEX_BLUETOOTH_DEVICE_ADDRESS
 881:Generated_Source\PSoC4/BLE.c ****                 destBuffer = &cyBle_discoveryData.advData[CYBLE_ADV_PKT_INDEX_BLUETOOTH_DEVICE_ADDR
 882:Generated_Source\PSoC4/BLE.c ****             #endif /* CYBLE_ADV_PKT_INDEX_BLUETOOTH_DEVICE_ADDRESS */
 883:Generated_Source\PSoC4/BLE.c ****         }
 884:Generated_Source\PSoC4/BLE.c ****         else                /* Destination - scan response structure */
 885:Generated_Source\PSoC4/BLE.c ****         {
 886:Generated_Source\PSoC4/BLE.c ****             #ifdef CYBLE_SCN_PKT_INDEX_BLUETOOTH_DEVICE_ADDRESS
 887:Generated_Source\PSoC4/BLE.c ****                 destBuffer = &cyBle_scanRspData.scanRspData[CYBLE_SCN_PKT_INDEX_BLUETOOTH_DEVICE_AD
 888:Generated_Source\PSoC4/BLE.c ****             #endif /* CYBLE_SCN_PKT_INDEX_BLUETOOTH_DEVICE_ADDRESS */    
ARM GAS  C:\Users\black\AppData\Local\Temp\ccj7eVXi.s 			page 36


 889:Generated_Source\PSoC4/BLE.c ****         }
 890:Generated_Source\PSoC4/BLE.c ****         
 891:Generated_Source\PSoC4/BLE.c ****         if(destBuffer != NULL)
 1095              		.loc 1 891 0
 1096 0012 BB68     		ldr	r3, [r7, #8]
 1097 0014 002B     		cmp	r3, #0
 1098 0016 20D0     		beq	.L55
 892:Generated_Source\PSoC4/BLE.c ****         {
 893:Generated_Source\PSoC4/BLE.c ****             /* Update Device Address type */
 894:Generated_Source\PSoC4/BLE.c ****             destBuffer[0u] = bdAddr->type;
 1099              		.loc 1 894 0
 1100 0018 7B68     		ldr	r3, [r7, #4]
 1101 001a 9A79     		ldrb	r2, [r3, #6]
 1102 001c BB68     		ldr	r3, [r7, #8]
 1103 001e 1A70     		strb	r2, [r3]
 895:Generated_Source\PSoC4/BLE.c ****             
 896:Generated_Source\PSoC4/BLE.c ****             for(i = 0u; i < CYBLE_GAP_BD_ADDR_SIZE; i++)
 1104              		.loc 1 896 0
 1105 0020 0F23     		movs	r3, #15
 1106 0022 FB18     		adds	r3, r7, r3
 1107 0024 0022     		movs	r2, #0
 1108 0026 1A70     		strb	r2, [r3]
 1109 0028 12E0     		b	.L53
 1110              	.L54:
 897:Generated_Source\PSoC4/BLE.c ****             {
 898:Generated_Source\PSoC4/BLE.c ****                 destBuffer[i + 1u] = bdAddr->bdAddr[i];
 1111              		.loc 1 898 0 discriminator 3
 1112 002a 0F23     		movs	r3, #15
 1113 002c FB18     		adds	r3, r7, r3
 1114 002e 1B78     		ldrb	r3, [r3]
 1115 0030 0133     		adds	r3, r3, #1
 1116 0032 BA68     		ldr	r2, [r7, #8]
 1117 0034 D318     		adds	r3, r2, r3
 1118 0036 0F22     		movs	r2, #15
 1119 0038 BA18     		adds	r2, r7, r2
 1120 003a 1278     		ldrb	r2, [r2]
 1121 003c 7968     		ldr	r1, [r7, #4]
 1122 003e 8A5C     		ldrb	r2, [r1, r2]
 1123 0040 1A70     		strb	r2, [r3]
 896:Generated_Source\PSoC4/BLE.c ****             {
 1124              		.loc 1 896 0 discriminator 3
 1125 0042 0F23     		movs	r3, #15
 1126 0044 FB18     		adds	r3, r7, r3
 1127 0046 1A78     		ldrb	r2, [r3]
 1128 0048 0F23     		movs	r3, #15
 1129 004a FB18     		adds	r3, r7, r3
 1130 004c 0132     		adds	r2, r2, #1
 1131 004e 1A70     		strb	r2, [r3]
 1132              	.L53:
 896:Generated_Source\PSoC4/BLE.c ****             {
 1133              		.loc 1 896 0 is_stmt 0 discriminator 1
 1134 0050 0F23     		movs	r3, #15
 1135 0052 FB18     		adds	r3, r7, r3
 1136 0054 1B78     		ldrb	r3, [r3]
 1137 0056 052B     		cmp	r3, #5
 1138 0058 E7D9     		bls	.L54
 1139              	.L55:
ARM GAS  C:\Users\black\AppData\Local\Temp\ccj7eVXi.s 			page 37


 899:Generated_Source\PSoC4/BLE.c ****             }
 900:Generated_Source\PSoC4/BLE.c ****         }
 901:Generated_Source\PSoC4/BLE.c ****     }
 1140              		.loc 1 901 0 is_stmt 1
 1141 005a C046     		nop
 1142 005c BD46     		mov	sp, r7
 1143 005e 04B0     		add	sp, sp, #16
 1144              		@ sp needed
 1145 0060 80BD     		pop	{r7, pc}
 1146              		.cfi_endproc
 1147              	.LFE10:
 1148              		.size	CyBle_ChangeAdDeviceAddress, .-CyBle_ChangeAdDeviceAddress
 1149 0062 C046     		.section	.text.CyBle_ChangeAdLocalName,"ax",%progbits
 1150              		.align	2
 1151              		.code	16
 1152              		.thumb_func
 1153              		.type	CyBle_ChangeAdLocalName, %function
 1154              	CyBle_ChangeAdLocalName:
 1155              	.LFB11:
 902:Generated_Source\PSoC4/BLE.c ****   
 903:Generated_Source\PSoC4/BLE.c **** #endif /* CYBLE_GAP_ROLE_PERIPHERAL || CYBLE_GAP_ROLE_BROADCASTER */
 904:Generated_Source\PSoC4/BLE.c **** 
 905:Generated_Source\PSoC4/BLE.c **** 
 906:Generated_Source\PSoC4/BLE.c **** #if(CYBLE_GAP_ROLE_CENTRAL || CYBLE_GAP_ROLE_OBSERVER)
 907:Generated_Source\PSoC4/BLE.c **** 
 908:Generated_Source\PSoC4/BLE.c ****     /******************************************************************************
 909:Generated_Source\PSoC4/BLE.c ****     * Function Name: CyBle_GapcStartScan
 910:Generated_Source\PSoC4/BLE.c ****     ***************************************************************************//**
 911:Generated_Source\PSoC4/BLE.c ****     * 
 912:Generated_Source\PSoC4/BLE.c ****     *   This function is used for discovering GAP peripheral devices that are 
 913:Generated_Source\PSoC4/BLE.c ****     *   available for connection. It performs the scanning routine using the 
 914:Generated_Source\PSoC4/BLE.c ****     *   parameters entered in the component's customizer.
 915:Generated_Source\PSoC4/BLE.c ****     *   
 916:Generated_Source\PSoC4/BLE.c ****     *   As soon as the discovery operation starts, CYBLE_EVT_GAPC_SCAN_START_STOP 
 917:Generated_Source\PSoC4/BLE.c ****     *   event is generated. The CYBLE_EVT_GAPC_SCAN_PROGRESS_RESULT event is 
 918:Generated_Source\PSoC4/BLE.c ****     *   generated when a GAP peripheral device is located. There are three discovery
 919:Generated_Source\PSoC4/BLE.c ****     *   procedures can be selected in the customizer's GUI:
 920:Generated_Source\PSoC4/BLE.c ****     *   
 921:Generated_Source\PSoC4/BLE.c ****     *   * Observation procedure: A device performing the observer role receives only
 922:Generated_Source\PSoC4/BLE.c ****     *                            advertisement data from devices irrespective of 
 923:Generated_Source\PSoC4/BLE.c ****     *                            their discoverable mode settings. Advertisement 
 924:Generated_Source\PSoC4/BLE.c ****     *                            data received is provided by the event,      
 925:Generated_Source\PSoC4/BLE.c ****     *                            CYBLE_EVT_GAPC_SCAN_PROGRESS_RESULT. This procedure
 926:Generated_Source\PSoC4/BLE.c ****     *                            requires the scanType sub parameter to be passive
 927:Generated_Source\PSoC4/BLE.c ****     *                            scanning. 
 928:Generated_Source\PSoC4/BLE.c ****     *   
 929:Generated_Source\PSoC4/BLE.c ****     *   * Limited Discovery procedure: A device performing the limited discovery
 930:Generated_Source\PSoC4/BLE.c ****     *                                  procedure receives advertisement data and 
 931:Generated_Source\PSoC4/BLE.c ****     *                                  scan# response data from devices in the 
 932:Generated_Source\PSoC4/BLE.c ****     *                                  limited discoverable mode only. Received data
 933:Generated_Source\PSoC4/BLE.c ****     *                                  is provided by the event, 
 934:Generated_Source\PSoC4/BLE.c ****     *                                  CYBLE_EVT_GAPC_SCAN_PROGRESS_RESULT. This 
 935:Generated_Source\PSoC4/BLE.c ****     *                                  procedure requires the scanType sub-parameter 
 936:Generated_Source\PSoC4/BLE.c ****     *                                  to be active scanning.
 937:Generated_Source\PSoC4/BLE.c ****     *   
 938:Generated_Source\PSoC4/BLE.c ****     *   * General Discovery procedure: A device performing the general discovery 
 939:Generated_Source\PSoC4/BLE.c ****     *                                  procedure receives the advertisement data and
ARM GAS  C:\Users\black\AppData\Local\Temp\ccj7eVXi.s 			page 38


 940:Generated_Source\PSoC4/BLE.c ****     *                                  scan response data from devices in both 
 941:Generated_Source\PSoC4/BLE.c ****     *                                  limited discoverable mode and the general 
 942:Generated_Source\PSoC4/BLE.c ****     *                                  discoverable mode. Received data is provided
 943:Generated_Source\PSoC4/BLE.c ****     *                                  by the event,
 944:Generated_Source\PSoC4/BLE.c ****     *                                  CYBLE_EVT_GAPC_SCAN_PROGRESS_RESULT. This 
 945:Generated_Source\PSoC4/BLE.c ****     *                                  procedure requires the scanType sub-parameter
 946:Generated_Source\PSoC4/BLE.c ****     *                                  to be active scanning.
 947:Generated_Source\PSoC4/BLE.c ****     *   
 948:Generated_Source\PSoC4/BLE.c ****     *   Every Advertisement / Scan response packet received results in a new event, 
 949:Generated_Source\PSoC4/BLE.c ****     *   CYBLE_EVT_GAPC_SCAN_PROGRESS_RESULT.
 950:Generated_Source\PSoC4/BLE.c ****     *   If 'scanTo' sub-parameter is a non-zero value, then upon commencement of 
 951:Generated_Source\PSoC4/BLE.c ****     *   discovery procedure and elapsed time = 'scanTo', CYBLE_EVT_TIMEOUT event
 952:Generated_Source\PSoC4/BLE.c ****     *   is generated with the event parameter indicating CYBLE_GAP_SCAN_TO.
 953:Generated_Source\PSoC4/BLE.c ****     *   Possible generated events are:
 954:Generated_Source\PSoC4/BLE.c ****     *   * CYBLE_EVT_GAPC_SCAN_START_STOP: If a device started or stopped scanning. 
 955:Generated_Source\PSoC4/BLE.c ****     *                                     Use CyBle_GetState() to determine the 
 956:Generated_Source\PSoC4/BLE.c ****     *                                     state. Sequential scanning could be 
 957:Generated_Source\PSoC4/BLE.c ****     *                                     started when CYBLE_STATE_DISCONNECTED 
 958:Generated_Source\PSoC4/BLE.c ****     *                                     state is returned. 
 959:Generated_Source\PSoC4/BLE.c ****     *   * CYBLE_EVT_GAPC_SCAN_PROGRESS_RESULT 
 960:Generated_Source\PSoC4/BLE.c ****     *   * CYBLE_EVT_TIMEOUT (CYBLE_GAP_SCAN_TO)
 961:Generated_Source\PSoC4/BLE.c ****     * 
 962:Generated_Source\PSoC4/BLE.c ****     *   \param scanningIntervalType:  Fast or slow scanning interval with
 963:Generated_Source\PSoC4/BLE.c ****     *       timings entered in Scan settings section of the customizer.
 964:Generated_Source\PSoC4/BLE.c ****     * 	  * CYBLE_SCANNING_FAST   0x00u
 965:Generated_Source\PSoC4/BLE.c ****     * 	  * CYBLE_SCANNING_SLOW   0x01u
 966:Generated_Source\PSoC4/BLE.c ****     * 	  * CYBLE_SCANNING_CUSTOM 0x02u
 967:Generated_Source\PSoC4/BLE.c ****     * 
 968:Generated_Source\PSoC4/BLE.c ****     * \return
 969:Generated_Source\PSoC4/BLE.c ****     *  CYBLE_API_RESULT_T : Return value indicates if the function succeeded or
 970:Generated_Source\PSoC4/BLE.c ****     *  failed. Following are the possible error codes.
 971:Generated_Source\PSoC4/BLE.c ****     *
 972:Generated_Source\PSoC4/BLE.c ****     *   Errors codes                       | Description
 973:Generated_Source\PSoC4/BLE.c ****     *   ---------------------------------- | -----------------------------------
 974:Generated_Source\PSoC4/BLE.c ****     *   CYBLE_ERROR_OK                     | On successful operation.
 975:Generated_Source\PSoC4/BLE.c ****     *   CYBLE_ERROR_STACK_INTERNAL         | An error occurred in the BLE stack.
 976:Generated_Source\PSoC4/BLE.c ****     *   CYBLE_ERROR_INVALID_PARAMETER      | On passing an invalid parameter.
 977:Generated_Source\PSoC4/BLE.c ****     *  
 978:Generated_Source\PSoC4/BLE.c ****     *******************************************************************************/
 979:Generated_Source\PSoC4/BLE.c ****     CYBLE_API_RESULT_T CyBle_GapcStartScan(uint8 scanningIntervalType)
 980:Generated_Source\PSoC4/BLE.c ****     {
 981:Generated_Source\PSoC4/BLE.c ****         CYBLE_API_RESULT_T apiResult;
 982:Generated_Source\PSoC4/BLE.c **** 
 983:Generated_Source\PSoC4/BLE.c ****         if(scanningIntervalType > CYBLE_SCANNING_CUSTOM)
 984:Generated_Source\PSoC4/BLE.c ****         {
 985:Generated_Source\PSoC4/BLE.c ****             apiResult = CYBLE_ERROR_INVALID_PARAMETER;
 986:Generated_Source\PSoC4/BLE.c ****         }
 987:Generated_Source\PSoC4/BLE.c ****         else
 988:Generated_Source\PSoC4/BLE.c ****         {
 989:Generated_Source\PSoC4/BLE.c ****             if(scanningIntervalType == CYBLE_SCANNING_FAST)
 990:Generated_Source\PSoC4/BLE.c ****             {
 991:Generated_Source\PSoC4/BLE.c ****                 cyBle_discoveryInfo.scanTo = CYBLE_FAST_SCAN_TIMEOUT;
 992:Generated_Source\PSoC4/BLE.c ****                 cyBle_discoveryInfo.scanIntv = CYBLE_FAST_SCAN_INTERVAL;
 993:Generated_Source\PSoC4/BLE.c ****                 cyBle_discoveryInfo.scanWindow = CYBLE_FAST_SCAN_WINDOW;
 994:Generated_Source\PSoC4/BLE.c ****             }
 995:Generated_Source\PSoC4/BLE.c ****             else if(scanningIntervalType == CYBLE_SCANNING_SLOW)
 996:Generated_Source\PSoC4/BLE.c ****             {
ARM GAS  C:\Users\black\AppData\Local\Temp\ccj7eVXi.s 			page 39


 997:Generated_Source\PSoC4/BLE.c ****                 cyBle_discoveryInfo.scanTo = CYBLE_SLOW_SCAN_TIMEOUT;
 998:Generated_Source\PSoC4/BLE.c ****                 cyBle_discoveryInfo.scanIntv = CYBLE_SLOW_SCAN_INTERVAL;
 999:Generated_Source\PSoC4/BLE.c ****                 cyBle_discoveryInfo.scanWindow = CYBLE_SLOW_SCAN_WINDOW;
1000:Generated_Source\PSoC4/BLE.c ****             }       
1001:Generated_Source\PSoC4/BLE.c ****             else /* Do not update scanning intervals */
1002:Generated_Source\PSoC4/BLE.c ****             {
1003:Generated_Source\PSoC4/BLE.c ****             }
1004:Generated_Source\PSoC4/BLE.c ****             
1005:Generated_Source\PSoC4/BLE.c ****             cyBle_scanningIntervalType = scanningIntervalType;
1006:Generated_Source\PSoC4/BLE.c ****             apiResult = CyBle_GapcStartDiscovery(&cyBle_discoveryInfo);
1007:Generated_Source\PSoC4/BLE.c ****         
1008:Generated_Source\PSoC4/BLE.c ****             if(apiResult == CYBLE_ERROR_OK)
1009:Generated_Source\PSoC4/BLE.c ****             {
1010:Generated_Source\PSoC4/BLE.c ****                 cyBle_eventHandlerFlag |= CYBLE_START_FLAG;
1011:Generated_Source\PSoC4/BLE.c ****             }
1012:Generated_Source\PSoC4/BLE.c ****         }
1013:Generated_Source\PSoC4/BLE.c ****        
1014:Generated_Source\PSoC4/BLE.c ****         return (apiResult);
1015:Generated_Source\PSoC4/BLE.c ****     }
1016:Generated_Source\PSoC4/BLE.c ****     
1017:Generated_Source\PSoC4/BLE.c ****     
1018:Generated_Source\PSoC4/BLE.c ****     /******************************************************************************
1019:Generated_Source\PSoC4/BLE.c ****     * Function Name: CyBle_GapcStopScan
1020:Generated_Source\PSoC4/BLE.c ****     ***************************************************************************//**
1021:Generated_Source\PSoC4/BLE.c ****     * 
1022:Generated_Source\PSoC4/BLE.c ****     *   This function used to stop the discovery of devices. On stopping discovery
1023:Generated_Source\PSoC4/BLE.c ****     *   operation, CYBLE_EVT_GAPC_SCAN_START_STOP event is generated. Application
1024:Generated_Source\PSoC4/BLE.c ****     *   layer needs to keep track of the function call made before receiving this
1025:Generated_Source\PSoC4/BLE.c ****     *   event to associate this event with either the start or stop discovery
1026:Generated_Source\PSoC4/BLE.c ****     *   function.
1027:Generated_Source\PSoC4/BLE.c ****     * 
1028:Generated_Source\PSoC4/BLE.c ****     *   Possible events generated are:
1029:Generated_Source\PSoC4/BLE.c ****     *    * CYBLE_EVT_GAPC_SCAN_START_STOP
1030:Generated_Source\PSoC4/BLE.c ****     * 
1031:Generated_Source\PSoC4/BLE.c ****     *  \return
1032:Generated_Source\PSoC4/BLE.c ****     *   None
1033:Generated_Source\PSoC4/BLE.c ****     * 
1034:Generated_Source\PSoC4/BLE.c ****     *******************************************************************************/
1035:Generated_Source\PSoC4/BLE.c ****     void CyBle_GapcStopScan(void)
1036:Generated_Source\PSoC4/BLE.c ****     {
1037:Generated_Source\PSoC4/BLE.c ****         CyBle_GapcStopDiscovery();
1038:Generated_Source\PSoC4/BLE.c ****         
1039:Generated_Source\PSoC4/BLE.c ****         cyBle_eventHandlerFlag |= CYBLE_STOP_FLAG;
1040:Generated_Source\PSoC4/BLE.c ****     }
1041:Generated_Source\PSoC4/BLE.c **** 
1042:Generated_Source\PSoC4/BLE.c ****     
1043:Generated_Source\PSoC4/BLE.c **** #endif /* CYBLE_GAP_ROLE_CENTRAL || CYBLE_GAP_ROLE_OBSERVER */
1044:Generated_Source\PSoC4/BLE.c **** 
1045:Generated_Source\PSoC4/BLE.c **** 
1046:Generated_Source\PSoC4/BLE.c **** #if(CYBLE_GAP_ROLE_CENTRAL)
1047:Generated_Source\PSoC4/BLE.c **** 
1048:Generated_Source\PSoC4/BLE.c ****     /******************************************************************************
1049:Generated_Source\PSoC4/BLE.c ****     * Function Name: CyBle_GapcConnectDevice
1050:Generated_Source\PSoC4/BLE.c ****     ***************************************************************************//**
1051:Generated_Source\PSoC4/BLE.c ****     * 
1052:Generated_Source\PSoC4/BLE.c ****     *  This function is used to send a connection request to the remote device with
1053:Generated_Source\PSoC4/BLE.c ****     *  the connection parameters set in the component customizer. This function needs
ARM GAS  C:\Users\black\AppData\Local\Temp\ccj7eVXi.s 			page 40


1054:Generated_Source\PSoC4/BLE.c ****     *  to be called only once after the target device is discovered by 
1055:Generated_Source\PSoC4/BLE.c ****     *  CyBle_GapcStartScan() and further scanning has stopped. Scanning is 
1056:Generated_Source\PSoC4/BLE.c ****     *  successfully stopped on invoking CyBle_GapcStopScan() and then receiving the
1057:Generated_Source\PSoC4/BLE.c ****     *  event CYBLE_EVT_GAPC_SCAN_START_STOP with sub-parameter 'success' = 0x01u.
1058:Generated_Source\PSoC4/BLE.c ****     *  
1059:Generated_Source\PSoC4/BLE.c ****     *  On successful connection, the following events are generated at the GAP 
1060:Generated_Source\PSoC4/BLE.c ****     *  Central device (as well as the GAP Peripheral device), in the following order.
1061:Generated_Source\PSoC4/BLE.c ****     *  * CYBLE_EVT_GATT_CONNECT_IND
1062:Generated_Source\PSoC4/BLE.c ****     *  * CYBLE_EVT_GAP_DEVICE_CONNECTED - If the device connects to a GAP Central and 
1063:Generated_Source\PSoC4/BLE.c ****     *    Link Layer Privacy is disabled in component customizer.
1064:Generated_Source\PSoC4/BLE.c ****     *  * CYBLE_EVT_GAP_ENHANCE_CONN_COMPLETE - If the device connects to a GAP Central and 
1065:Generated_Source\PSoC4/BLE.c ****     *    Link Layer Privacy is enabled in component customizer.
1066:Generated_Source\PSoC4/BLE.c ****     *  * CYBLE_EVT_GAP_DEVICE_CONNECTED
1067:Generated_Source\PSoC4/BLE.c ****     *  
1068:Generated_Source\PSoC4/BLE.c ****     *  A procedure is considered to have timed out if a connection response packet is 
1069:Generated_Source\PSoC4/BLE.c ****     *  not received within time set by cyBle_connectingTimeout global variable
1070:Generated_Source\PSoC4/BLE.c ****     *  (30 seconds by default). CYBLE_EVT_TIMEOUT event with CYBLE_GENERIC_TO parameter
1071:Generated_Source\PSoC4/BLE.c ****     *  will indicate about connection procedure timeout. Connection will automatically
1072:Generated_Source\PSoC4/BLE.c ****     *  be canceled and state will be changed to CYBLE_STATE_DISCONNECTED.
1073:Generated_Source\PSoC4/BLE.c ****     * 
1074:Generated_Source\PSoC4/BLE.c ****     *  \param address: The device address of the remote device to connect to. 
1075:Generated_Source\PSoC4/BLE.c ****     *  
1076:Generated_Source\PSoC4/BLE.c ****     * \return
1077:Generated_Source\PSoC4/BLE.c ****     *  CYBLE_API_RESULT_T : Return value indicates if the function succeeded or 
1078:Generated_Source\PSoC4/BLE.c ****     *  failed. Following are the possible error codes.
1079:Generated_Source\PSoC4/BLE.c ****     *
1080:Generated_Source\PSoC4/BLE.c ****     *   Errors codes                       | Description
1081:Generated_Source\PSoC4/BLE.c ****     *   ------------                       | -----------
1082:Generated_Source\PSoC4/BLE.c ****     *   CYBLE_ERROR_OK                     | On successful operation.
1083:Generated_Source\PSoC4/BLE.c ****     *   CYBLE_ERROR_STACK_INTERNAL         | On error occurred in the BLE stack.
1084:Generated_Source\PSoC4/BLE.c ****     *   CYBLE_ERROR_INVALID_PARAMETER      | On passing an invalid parameter.
1085:Generated_Source\PSoC4/BLE.c ****     *   CYBLE_ERROR_INVALID_STATE          | On calling this API not in Disconnected state.
1086:Generated_Source\PSoC4/BLE.c ****     *  
1087:Generated_Source\PSoC4/BLE.c ****     ******************************************************************************/
1088:Generated_Source\PSoC4/BLE.c ****     CYBLE_API_RESULT_T CyBle_GapcConnectDevice(const CYBLE_GAP_BD_ADDR_T * address)
1089:Generated_Source\PSoC4/BLE.c ****     {
1090:Generated_Source\PSoC4/BLE.c ****         CYBLE_API_RESULT_T apiResult;
1091:Generated_Source\PSoC4/BLE.c ****         uint8 i;
1092:Generated_Source\PSoC4/BLE.c **** 
1093:Generated_Source\PSoC4/BLE.c ****         if(CyBle_GetState() != CYBLE_STATE_DISCONNECTED)
1094:Generated_Source\PSoC4/BLE.c ****         {
1095:Generated_Source\PSoC4/BLE.c ****             apiResult = CYBLE_ERROR_INVALID_STATE;
1096:Generated_Source\PSoC4/BLE.c ****         }
1097:Generated_Source\PSoC4/BLE.c ****         else if(address == NULL)
1098:Generated_Source\PSoC4/BLE.c ****         {
1099:Generated_Source\PSoC4/BLE.c ****             apiResult = CYBLE_ERROR_INVALID_PARAMETER;
1100:Generated_Source\PSoC4/BLE.c ****         }
1101:Generated_Source\PSoC4/BLE.c ****         else
1102:Generated_Source\PSoC4/BLE.c ****         {
1103:Generated_Source\PSoC4/BLE.c ****             for(i = 0u; i < CYBLE_GAP_BD_ADDR_SIZE; i++)
1104:Generated_Source\PSoC4/BLE.c ****             {
1105:Generated_Source\PSoC4/BLE.c ****                 cyBle_connectionParameters.peerBdAddr[i] = address->bdAddr[i];
1106:Generated_Source\PSoC4/BLE.c ****             }
1107:Generated_Source\PSoC4/BLE.c ****             cyBle_connectionParameters.peerAddrType = address -> type;
1108:Generated_Source\PSoC4/BLE.c ****             apiResult = CyBle_GapcInitConnection(&cyBle_connectionParameters);
1109:Generated_Source\PSoC4/BLE.c ****             
1110:Generated_Source\PSoC4/BLE.c ****             if(apiResult == CYBLE_ERROR_OK)
ARM GAS  C:\Users\black\AppData\Local\Temp\ccj7eVXi.s 			page 41


1111:Generated_Source\PSoC4/BLE.c ****             {
1112:Generated_Source\PSoC4/BLE.c ****                 CyBle_SetState(CYBLE_STATE_CONNECTING);
1113:Generated_Source\PSoC4/BLE.c ****                 if(cyBle_connectingTimeout != 0u)
1114:Generated_Source\PSoC4/BLE.c ****                 {
1115:Generated_Source\PSoC4/BLE.c ****                     (void)CyBle_StartTimer(cyBle_connectingTimeout);
1116:Generated_Source\PSoC4/BLE.c ****                 }
1117:Generated_Source\PSoC4/BLE.c ****             }
1118:Generated_Source\PSoC4/BLE.c ****         }
1119:Generated_Source\PSoC4/BLE.c ****         return (apiResult);
1120:Generated_Source\PSoC4/BLE.c ****     }
1121:Generated_Source\PSoC4/BLE.c ****     
1122:Generated_Source\PSoC4/BLE.c **** 
1123:Generated_Source\PSoC4/BLE.c ****     /******************************************************************************
1124:Generated_Source\PSoC4/BLE.c ****     * Function Name: CyBle_GapcCancelDeviceConnection
1125:Generated_Source\PSoC4/BLE.c ****     ***************************************************************************//**
1126:Generated_Source\PSoC4/BLE.c ****     * 
1127:Generated_Source\PSoC4/BLE.c ****     *  This function cancels a previously initiated connection with the remote 
1128:Generated_Source\PSoC4/BLE.c ****     *  device. It is a blocking function. No event is generated on calling this 
1129:Generated_Source\PSoC4/BLE.c ****     *  function. If the devices are already connected then this function should not
1130:Generated_Source\PSoC4/BLE.c ****     *  be used. If you intend to disconnect from an existing connection, the function
1131:Generated_Source\PSoC4/BLE.c ****     *  CyBle_GapDisconnect() should be used.
1132:Generated_Source\PSoC4/BLE.c ****     * 
1133:Generated_Source\PSoC4/BLE.c ****     * \return
1134:Generated_Source\PSoC4/BLE.c ****     *  CYBLE_API_RESULT_T : Return value indicates if the function succeeded or 
1135:Generated_Source\PSoC4/BLE.c ****     *  failed. Following are the possible error codes.
1136:Generated_Source\PSoC4/BLE.c ****     *
1137:Generated_Source\PSoC4/BLE.c ****     *   Errors codes                       | Description
1138:Generated_Source\PSoC4/BLE.c ****     *   ---------------------------------- | --------------------------------------
1139:Generated_Source\PSoC4/BLE.c ****     *   CYBLE_ERROR_OK                     | On successful operation.
1140:Generated_Source\PSoC4/BLE.c ****     *   CYBLE_ERROR_STACK_INTERNAL         | An error occurred in the BLE stack.
1141:Generated_Source\PSoC4/BLE.c ****     *   CYBLE_ERROR_INVALID_STATE          | On calling this API not in Connecting state.
1142:Generated_Source\PSoC4/BLE.c ****     *  
1143:Generated_Source\PSoC4/BLE.c ****     *******************************************************************************/
1144:Generated_Source\PSoC4/BLE.c ****     CYBLE_API_RESULT_T CyBle_GapcCancelDeviceConnection(void)
1145:Generated_Source\PSoC4/BLE.c ****     {
1146:Generated_Source\PSoC4/BLE.c ****         CYBLE_API_RESULT_T apiResult;
1147:Generated_Source\PSoC4/BLE.c ****         
1148:Generated_Source\PSoC4/BLE.c ****         if(CyBle_GetState() != CYBLE_STATE_CONNECTING)
1149:Generated_Source\PSoC4/BLE.c ****         {
1150:Generated_Source\PSoC4/BLE.c ****             apiResult = CYBLE_ERROR_INVALID_STATE;
1151:Generated_Source\PSoC4/BLE.c ****         }
1152:Generated_Source\PSoC4/BLE.c ****         else 
1153:Generated_Source\PSoC4/BLE.c ****         {
1154:Generated_Source\PSoC4/BLE.c ****             apiResult = CyBle_GapcCancelConnection();
1155:Generated_Source\PSoC4/BLE.c ****             
1156:Generated_Source\PSoC4/BLE.c ****             if(cyBle_connectingTimeout != 0u)
1157:Generated_Source\PSoC4/BLE.c ****             {
1158:Generated_Source\PSoC4/BLE.c ****                 (void)CyBle_StopTimer();
1159:Generated_Source\PSoC4/BLE.c ****             }
1160:Generated_Source\PSoC4/BLE.c **** 
1161:Generated_Source\PSoC4/BLE.c ****             if(apiResult == CYBLE_ERROR_OK)
1162:Generated_Source\PSoC4/BLE.c ****             {
1163:Generated_Source\PSoC4/BLE.c ****                 CyBle_SetState(CYBLE_STATE_DISCONNECTED);
1164:Generated_Source\PSoC4/BLE.c ****             }
1165:Generated_Source\PSoC4/BLE.c ****         }
1166:Generated_Source\PSoC4/BLE.c ****         return (apiResult);
1167:Generated_Source\PSoC4/BLE.c ****     }    
ARM GAS  C:\Users\black\AppData\Local\Temp\ccj7eVXi.s 			page 42


1168:Generated_Source\PSoC4/BLE.c **** 
1169:Generated_Source\PSoC4/BLE.c ****     
1170:Generated_Source\PSoC4/BLE.c **** #endif /* CYBLE_GAP_ROLE_CENTRAL */
1171:Generated_Source\PSoC4/BLE.c **** 
1172:Generated_Source\PSoC4/BLE.c **** 
1173:Generated_Source\PSoC4/BLE.c **** #if(CYBLE_GATT_ROLE_SERVER)
1174:Generated_Source\PSoC4/BLE.c **** 
1175:Generated_Source\PSoC4/BLE.c **** #if(CYBLE_GAP_ROLE_PERIPHERAL)
1176:Generated_Source\PSoC4/BLE.c **** 
1177:Generated_Source\PSoC4/BLE.c ****         /******************************************************************************
1178:Generated_Source\PSoC4/BLE.c ****         * Function Name: CyBle_ChangeAdLocalName
1179:Generated_Source\PSoC4/BLE.c ****         ***************************************************************************//**
1180:Generated_Source\PSoC4/BLE.c ****         *  This API is used to set the local device name in the advertisement or scan 
1181:Generated_Source\PSoC4/BLE.c ****         *  response data structure.
1182:Generated_Source\PSoC4/BLE.c ****         * 
1183:Generated_Source\PSoC4/BLE.c ****         *  \param name: The local device name string to be set in advertisement data 
1184:Generated_Source\PSoC4/BLE.c ****         *            structure.
1185:Generated_Source\PSoC4/BLE.c ****         *  \param dest: 0 - advertisement structure, not zero value selects scan response
1186:Generated_Source\PSoC4/BLE.c ****         *              structure.
1187:Generated_Source\PSoC4/BLE.c ****         * 
1188:Generated_Source\PSoC4/BLE.c ****         * \return
1189:Generated_Source\PSoC4/BLE.c ****         *  None
1190:Generated_Source\PSoC4/BLE.c ****         *  
1191:Generated_Source\PSoC4/BLE.c ****         *******************************************************************************/
1192:Generated_Source\PSoC4/BLE.c ****         static void CyBle_ChangeAdLocalName(const char8 name[], uint8 dest)
1193:Generated_Source\PSoC4/BLE.c ****         {
 1156              		.loc 1 1193 0
 1157              		.cfi_startproc
 1158              		@ args = 0, pretend = 0, frame = 24
 1159              		@ frame_needed = 1, uses_anonymous_args = 0
 1160 0000 80B5     		push	{r7, lr}
 1161              		.cfi_def_cfa_offset 8
 1162              		.cfi_offset 7, -8
 1163              		.cfi_offset 14, -4
 1164 0002 86B0     		sub	sp, sp, #24
 1165              		.cfi_def_cfa_offset 32
 1166 0004 00AF     		add	r7, sp, #0
 1167              		.cfi_def_cfa_register 7
 1168 0006 7860     		str	r0, [r7, #4]
 1169 0008 0A00     		movs	r2, r1
 1170 000a FB1C     		adds	r3, r7, #3
 1171 000c 1A70     		strb	r2, [r3]
1194:Generated_Source\PSoC4/BLE.c ****             uint8 i;
1195:Generated_Source\PSoC4/BLE.c ****             uint8 flag = 0u;
 1172              		.loc 1 1195 0
 1173 000e 1623     		movs	r3, #22
 1174 0010 FB18     		adds	r3, r7, r3
 1175 0012 0022     		movs	r2, #0
 1176 0014 1A70     		strb	r2, [r3]
1196:Generated_Source\PSoC4/BLE.c ****             uint8 adLength = 0u;
 1177              		.loc 1 1196 0
 1178 0016 1523     		movs	r3, #21
 1179 0018 FB18     		adds	r3, r7, r3
 1180 001a 0022     		movs	r2, #0
 1181 001c 1A70     		strb	r2, [r3]
1197:Generated_Source\PSoC4/BLE.c ****             uint8 byteCounter = 0u;
 1182              		.loc 1 1197 0
ARM GAS  C:\Users\black\AppData\Local\Temp\ccj7eVXi.s 			page 43


 1183 001e 1423     		movs	r3, #20
 1184 0020 FB18     		adds	r3, r7, r3
 1185 0022 0022     		movs	r2, #0
 1186 0024 1A70     		strb	r2, [r3]
1198:Generated_Source\PSoC4/BLE.c ****             uint8 *destBuffer;
1199:Generated_Source\PSoC4/BLE.c ****             uint8 maxLength;
1200:Generated_Source\PSoC4/BLE.c ****             
1201:Generated_Source\PSoC4/BLE.c ****             if(dest == 0u)      /* Destination - advertising structure */
 1187              		.loc 1 1201 0
 1188 0026 FB1C     		adds	r3, r7, #3
 1189 0028 1B78     		ldrb	r3, [r3]
 1190 002a 002B     		cmp	r3, #0
 1191 002c 07D1     		bne	.L57
1202:Generated_Source\PSoC4/BLE.c ****             {
1203:Generated_Source\PSoC4/BLE.c ****                 destBuffer = cyBle_discoveryData.advData;
 1192              		.loc 1 1203 0
 1193 002e 5C4B     		ldr	r3, .L74
 1194 0030 3B61     		str	r3, [r7, #16]
1204:Generated_Source\PSoC4/BLE.c ****                 maxLength = cyBle_discoveryData.advDataLen;
 1195              		.loc 1 1204 0
 1196 0032 0F23     		movs	r3, #15
 1197 0034 FB18     		adds	r3, r7, r3
 1198 0036 5A4A     		ldr	r2, .L74
 1199 0038 D27F     		ldrb	r2, [r2, #31]
 1200 003a 1A70     		strb	r2, [r3]
 1201 003c 3BE0     		b	.L59
 1202              	.L57:
1205:Generated_Source\PSoC4/BLE.c ****             }
1206:Generated_Source\PSoC4/BLE.c ****             else                /* Destination - scan response structure */
1207:Generated_Source\PSoC4/BLE.c ****             {
1208:Generated_Source\PSoC4/BLE.c ****                 destBuffer = cyBle_scanRspData.scanRspData;
 1203              		.loc 1 1208 0
 1204 003e 594B     		ldr	r3, .L74+4
 1205 0040 3B61     		str	r3, [r7, #16]
1209:Generated_Source\PSoC4/BLE.c ****                 maxLength = cyBle_scanRspData.scanRspDataLen;
 1206              		.loc 1 1209 0
 1207 0042 0F23     		movs	r3, #15
 1208 0044 FB18     		adds	r3, r7, r3
 1209 0046 574A     		ldr	r2, .L74+4
 1210 0048 D27F     		ldrb	r2, [r2, #31]
 1211 004a 1A70     		strb	r2, [r3]
1210:Generated_Source\PSoC4/BLE.c ****             }
1211:Generated_Source\PSoC4/BLE.c ****             
1212:Generated_Source\PSoC4/BLE.c ****             while((byteCounter < maxLength) && (flag == 0u))
 1212              		.loc 1 1212 0
 1213 004c 33E0     		b	.L59
 1214              	.L65:
1213:Generated_Source\PSoC4/BLE.c ****             {
1214:Generated_Source\PSoC4/BLE.c ****                 adLength = destBuffer[byteCounter];
 1215              		.loc 1 1214 0
 1216 004e 1423     		movs	r3, #20
 1217 0050 FB18     		adds	r3, r7, r3
 1218 0052 1B78     		ldrb	r3, [r3]
 1219 0054 3A69     		ldr	r2, [r7, #16]
 1220 0056 D218     		adds	r2, r2, r3
 1221 0058 1523     		movs	r3, #21
 1222 005a FB18     		adds	r3, r7, r3
ARM GAS  C:\Users\black\AppData\Local\Temp\ccj7eVXi.s 			page 44


 1223 005c 1278     		ldrb	r2, [r2]
 1224 005e 1A70     		strb	r2, [r3]
1215:Generated_Source\PSoC4/BLE.c ****                 
1216:Generated_Source\PSoC4/BLE.c ****                 if(0u != adLength)
 1225              		.loc 1 1216 0
 1226 0060 1523     		movs	r3, #21
 1227 0062 FB18     		adds	r3, r7, r3
 1228 0064 1B78     		ldrb	r3, [r3]
 1229 0066 002B     		cmp	r3, #0
 1230 0068 33D0     		beq	.L72
1217:Generated_Source\PSoC4/BLE.c ****                 {
1218:Generated_Source\PSoC4/BLE.c ****                     /* Increment byte counter so it can point to AD type */
1219:Generated_Source\PSoC4/BLE.c ****                     byteCounter++;
 1231              		.loc 1 1219 0
 1232 006a 1423     		movs	r3, #20
 1233 006c FB18     		adds	r3, r7, r3
 1234 006e 1A78     		ldrb	r2, [r3]
 1235 0070 1423     		movs	r3, #20
 1236 0072 FB18     		adds	r3, r7, r3
 1237 0074 0132     		adds	r2, r2, #1
 1238 0076 1A70     		strb	r2, [r3]
1220:Generated_Source\PSoC4/BLE.c ****                     
1221:Generated_Source\PSoC4/BLE.c ****                     if((destBuffer[byteCounter] == CYBLE_SHORT_LOCAL_NAME) || 
 1239              		.loc 1 1221 0
 1240 0078 1423     		movs	r3, #20
 1241 007a FB18     		adds	r3, r7, r3
 1242 007c 1B78     		ldrb	r3, [r3]
 1243 007e 3A69     		ldr	r2, [r7, #16]
 1244 0080 D318     		adds	r3, r2, r3
 1245 0082 1B78     		ldrb	r3, [r3]
 1246 0084 082B     		cmp	r3, #8
 1247 0086 07D0     		beq	.L61
1222:Generated_Source\PSoC4/BLE.c ****                        (destBuffer[byteCounter] == CYBLE_COMPLETE_LOCAL_NAME))
 1248              		.loc 1 1222 0 discriminator 1
 1249 0088 1423     		movs	r3, #20
 1250 008a FB18     		adds	r3, r7, r3
 1251 008c 1B78     		ldrb	r3, [r3]
 1252 008e 3A69     		ldr	r2, [r7, #16]
 1253 0090 D318     		adds	r3, r2, r3
 1254 0092 1B78     		ldrb	r3, [r3]
1221:Generated_Source\PSoC4/BLE.c ****                        (destBuffer[byteCounter] == CYBLE_COMPLETE_LOCAL_NAME))
 1255              		.loc 1 1221 0 discriminator 1
 1256 0094 092B     		cmp	r3, #9
 1257 0096 04D1     		bne	.L62
 1258              	.L61:
1223:Generated_Source\PSoC4/BLE.c ****                     {
1224:Generated_Source\PSoC4/BLE.c ****                         /* Start of the Local Name AD type was fount. Set flag and exit the loop. *
1225:Generated_Source\PSoC4/BLE.c ****                         flag = 1u;
 1259              		.loc 1 1225 0
 1260 0098 1623     		movs	r3, #22
 1261 009a FB18     		adds	r3, r7, r3
 1262 009c 0122     		movs	r2, #1
 1263 009e 1A70     		strb	r2, [r3]
 1264 00a0 09E0     		b	.L59
 1265              	.L62:
1226:Generated_Source\PSoC4/BLE.c ****                     }
1227:Generated_Source\PSoC4/BLE.c ****                     else
ARM GAS  C:\Users\black\AppData\Local\Temp\ccj7eVXi.s 			page 45


1228:Generated_Source\PSoC4/BLE.c ****                     {
1229:Generated_Source\PSoC4/BLE.c ****                         byteCounter += adLength;
 1266              		.loc 1 1229 0
 1267 00a2 1423     		movs	r3, #20
 1268 00a4 FB18     		adds	r3, r7, r3
 1269 00a6 1422     		movs	r2, #20
 1270 00a8 B918     		adds	r1, r7, r2
 1271 00aa 1522     		movs	r2, #21
 1272 00ac BA18     		adds	r2, r7, r2
 1273 00ae 0978     		ldrb	r1, [r1]
 1274 00b0 1278     		ldrb	r2, [r2]
 1275 00b2 8A18     		adds	r2, r1, r2
 1276 00b4 1A70     		strb	r2, [r3]
 1277              	.L59:
1212:Generated_Source\PSoC4/BLE.c ****             {
 1278              		.loc 1 1212 0
 1279 00b6 1423     		movs	r3, #20
 1280 00b8 FA18     		adds	r2, r7, r3
 1281 00ba 0F23     		movs	r3, #15
 1282 00bc FB18     		adds	r3, r7, r3
 1283 00be 1278     		ldrb	r2, [r2]
 1284 00c0 1B78     		ldrb	r3, [r3]
 1285 00c2 9A42     		cmp	r2, r3
 1286 00c4 06D2     		bcs	.L64
1212:Generated_Source\PSoC4/BLE.c ****             {
 1287              		.loc 1 1212 0 is_stmt 0 discriminator 1
 1288 00c6 1623     		movs	r3, #22
 1289 00c8 FB18     		adds	r3, r7, r3
 1290 00ca 1B78     		ldrb	r3, [r3]
 1291 00cc 002B     		cmp	r3, #0
 1292 00ce BED0     		beq	.L65
 1293 00d0 00E0     		b	.L64
 1294              	.L72:
1230:Generated_Source\PSoC4/BLE.c ****                     }
1231:Generated_Source\PSoC4/BLE.c ****                 }
1232:Generated_Source\PSoC4/BLE.c ****                 else
1233:Generated_Source\PSoC4/BLE.c ****                 {
1234:Generated_Source\PSoC4/BLE.c ****                     /* The end of advertisement data structure was encountered though exit the loop
1235:Generated_Source\PSoC4/BLE.c ****                     break;
 1295              		.loc 1 1235 0 is_stmt 1
 1296 00d2 C046     		nop
 1297              	.L64:
1236:Generated_Source\PSoC4/BLE.c ****                 }
1237:Generated_Source\PSoC4/BLE.c ****             }
1238:Generated_Source\PSoC4/BLE.c ****             
1239:Generated_Source\PSoC4/BLE.c ****             if(0u != flag)
 1298              		.loc 1 1239 0
 1299 00d4 1623     		movs	r3, #22
 1300 00d6 FB18     		adds	r3, r7, r3
 1301 00d8 1B78     		ldrb	r3, [r3]
 1302 00da 002B     		cmp	r3, #0
 1303 00dc 5BD0     		beq	.L73
1240:Generated_Source\PSoC4/BLE.c ****             {
1241:Generated_Source\PSoC4/BLE.c ****                 /* Reuse "adLength" to hold location of the last character of local name in 
1242:Generated_Source\PSoC4/BLE.c ****                    AD structure. */
1243:Generated_Source\PSoC4/BLE.c ****                 adLength += byteCounter;
 1304              		.loc 1 1243 0
ARM GAS  C:\Users\black\AppData\Local\Temp\ccj7eVXi.s 			page 46


 1305 00de 1523     		movs	r3, #21
 1306 00e0 FB18     		adds	r3, r7, r3
 1307 00e2 1522     		movs	r2, #21
 1308 00e4 B918     		adds	r1, r7, r2
 1309 00e6 1422     		movs	r2, #20
 1310 00e8 BA18     		adds	r2, r7, r2
 1311 00ea 0978     		ldrb	r1, [r1]
 1312 00ec 1278     		ldrb	r2, [r2]
 1313 00ee 8A18     		adds	r2, r1, r2
 1314 00f0 1A70     		strb	r2, [r3]
1244:Generated_Source\PSoC4/BLE.c ****                 
1245:Generated_Source\PSoC4/BLE.c ****                 /* Increment byte counter to point to start of the local Name string */
1246:Generated_Source\PSoC4/BLE.c ****                 byteCounter++;
 1315              		.loc 1 1246 0
 1316 00f2 1423     		movs	r3, #20
 1317 00f4 FB18     		adds	r3, r7, r3
 1318 00f6 1A78     		ldrb	r2, [r3]
 1319 00f8 1423     		movs	r3, #20
 1320 00fa FB18     		adds	r3, r7, r3
 1321 00fc 0132     		adds	r2, r2, #1
 1322 00fe 1A70     		strb	r2, [r3]
1247:Generated_Source\PSoC4/BLE.c ****                 
1248:Generated_Source\PSoC4/BLE.c ****                 for(i = byteCounter; ((i < (adLength)) && (CYBLE_NULL_CHARCTER != name[i - byteCoun
 1323              		.loc 1 1248 0
 1324 0100 1723     		movs	r3, #23
 1325 0102 FB18     		adds	r3, r7, r3
 1326 0104 1422     		movs	r2, #20
 1327 0106 BA18     		adds	r2, r7, r2
 1328 0108 1278     		ldrb	r2, [r2]
 1329 010a 1A70     		strb	r2, [r3]
 1330 010c 17E0     		b	.L67
 1331              	.L69:
1249:Generated_Source\PSoC4/BLE.c ****                 {
1250:Generated_Source\PSoC4/BLE.c ****                     destBuffer[i] = (uint8)name[i - byteCounter];
 1332              		.loc 1 1250 0 discriminator 4
 1333 010e 1723     		movs	r3, #23
 1334 0110 FB18     		adds	r3, r7, r3
 1335 0112 1B78     		ldrb	r3, [r3]
 1336 0114 3A69     		ldr	r2, [r7, #16]
 1337 0116 D318     		adds	r3, r2, r3
 1338 0118 1722     		movs	r2, #23
 1339 011a BA18     		adds	r2, r7, r2
 1340 011c 1178     		ldrb	r1, [r2]
 1341 011e 1422     		movs	r2, #20
 1342 0120 BA18     		adds	r2, r7, r2
 1343 0122 1278     		ldrb	r2, [r2]
 1344 0124 8A1A     		subs	r2, r1, r2
 1345 0126 1100     		movs	r1, r2
 1346 0128 7A68     		ldr	r2, [r7, #4]
 1347 012a 5218     		adds	r2, r2, r1
 1348 012c 1278     		ldrb	r2, [r2]
 1349 012e 1A70     		strb	r2, [r3]
1248:Generated_Source\PSoC4/BLE.c ****                 {
 1350              		.loc 1 1248 0 discriminator 4
 1351 0130 1723     		movs	r3, #23
 1352 0132 FB18     		adds	r3, r7, r3
 1353 0134 1A78     		ldrb	r2, [r3]
ARM GAS  C:\Users\black\AppData\Local\Temp\ccj7eVXi.s 			page 47


 1354 0136 1723     		movs	r3, #23
 1355 0138 FB18     		adds	r3, r7, r3
 1356 013a 0132     		adds	r2, r2, #1
 1357 013c 1A70     		strb	r2, [r3]
 1358              	.L67:
1248:Generated_Source\PSoC4/BLE.c ****                 {
 1359              		.loc 1 1248 0 is_stmt 0 discriminator 1
 1360 013e 1723     		movs	r3, #23
 1361 0140 FA18     		adds	r2, r7, r3
 1362 0142 1523     		movs	r3, #21
 1363 0144 FB18     		adds	r3, r7, r3
 1364 0146 1278     		ldrb	r2, [r2]
 1365 0148 1B78     		ldrb	r3, [r3]
 1366 014a 9A42     		cmp	r2, r3
 1367 014c 1BD2     		bcs	.L70
1248:Generated_Source\PSoC4/BLE.c ****                 {
 1368              		.loc 1 1248 0 discriminator 3
 1369 014e 1723     		movs	r3, #23
 1370 0150 FB18     		adds	r3, r7, r3
 1371 0152 1A78     		ldrb	r2, [r3]
 1372 0154 1423     		movs	r3, #20
 1373 0156 FB18     		adds	r3, r7, r3
 1374 0158 1B78     		ldrb	r3, [r3]
 1375 015a D31A     		subs	r3, r2, r3
 1376 015c 1A00     		movs	r2, r3
 1377 015e 7B68     		ldr	r3, [r7, #4]
 1378 0160 9B18     		adds	r3, r3, r2
 1379 0162 1B78     		ldrb	r3, [r3]
 1380 0164 002B     		cmp	r3, #0
 1381 0166 D2D1     		bne	.L69
1251:Generated_Source\PSoC4/BLE.c ****                 }
1252:Generated_Source\PSoC4/BLE.c ****                 
1253:Generated_Source\PSoC4/BLE.c ****                 /* This loop handles the case when new local name is shorted than old one.
1254:Generated_Source\PSoC4/BLE.c ****                    In this case all remaining characters should be null characters. */
1255:Generated_Source\PSoC4/BLE.c ****                 while(adLength > i)
 1382              		.loc 1 1255 0 is_stmt 1
 1383 0168 0DE0     		b	.L70
 1384              	.L71:
1256:Generated_Source\PSoC4/BLE.c ****                 {
1257:Generated_Source\PSoC4/BLE.c ****                     /* Terminate string */
1258:Generated_Source\PSoC4/BLE.c ****                     destBuffer[i] = (uint8)CYBLE_NULL_CHARCTER;
 1385              		.loc 1 1258 0
 1386 016a 1723     		movs	r3, #23
 1387 016c FB18     		adds	r3, r7, r3
 1388 016e 1B78     		ldrb	r3, [r3]
 1389 0170 3A69     		ldr	r2, [r7, #16]
 1390 0172 D318     		adds	r3, r2, r3
 1391 0174 0022     		movs	r2, #0
 1392 0176 1A70     		strb	r2, [r3]
1259:Generated_Source\PSoC4/BLE.c ****                     i++;
 1393              		.loc 1 1259 0
 1394 0178 1723     		movs	r3, #23
 1395 017a FB18     		adds	r3, r7, r3
 1396 017c 1A78     		ldrb	r2, [r3]
 1397 017e 1723     		movs	r3, #23
 1398 0180 FB18     		adds	r3, r7, r3
 1399 0182 0132     		adds	r2, r2, #1
ARM GAS  C:\Users\black\AppData\Local\Temp\ccj7eVXi.s 			page 48


 1400 0184 1A70     		strb	r2, [r3]
 1401              	.L70:
1255:Generated_Source\PSoC4/BLE.c ****                 {
 1402              		.loc 1 1255 0
 1403 0186 1523     		movs	r3, #21
 1404 0188 FA18     		adds	r2, r7, r3
 1405 018a 1723     		movs	r3, #23
 1406 018c FB18     		adds	r3, r7, r3
 1407 018e 1278     		ldrb	r2, [r2]
 1408 0190 1B78     		ldrb	r3, [r3]
 1409 0192 9A42     		cmp	r2, r3
 1410 0194 E9D8     		bhi	.L71
 1411              	.L73:
1260:Generated_Source\PSoC4/BLE.c ****                 }
1261:Generated_Source\PSoC4/BLE.c ****             }
1262:Generated_Source\PSoC4/BLE.c ****         }
 1412              		.loc 1 1262 0
 1413 0196 C046     		nop
 1414 0198 BD46     		mov	sp, r7
 1415 019a 06B0     		add	sp, sp, #24
 1416              		@ sp needed
 1417 019c 80BD     		pop	{r7, pc}
 1418              	.L75:
 1419 019e C046     		.align	2
 1420              	.L74:
 1421 01a0 00000000 		.word	cyBle_discoveryData
 1422 01a4 00000000 		.word	cyBle_scanRspData
 1423              		.cfi_endproc
 1424              	.LFE11:
 1425              		.size	CyBle_ChangeAdLocalName, .-CyBle_ChangeAdLocalName
 1426              		.section	.text.CyBle_GapSetLocalName,"ax",%progbits
 1427              		.align	2
 1428              		.global	CyBle_GapSetLocalName
 1429              		.code	16
 1430              		.thumb_func
 1431              		.type	CyBle_GapSetLocalName, %function
 1432              	CyBle_GapSetLocalName:
 1433              	.LFB12:
1263:Generated_Source\PSoC4/BLE.c ****         
1264:Generated_Source\PSoC4/BLE.c **** #endif /* (CYBLE_GAP_ROLE_PERIPHERAL) */  
1265:Generated_Source\PSoC4/BLE.c ****     
1266:Generated_Source\PSoC4/BLE.c ****     
1267:Generated_Source\PSoC4/BLE.c ****     /******************************************************************************
1268:Generated_Source\PSoC4/BLE.c ****     * Function Name: CyBle_GapSetLocalName
1269:Generated_Source\PSoC4/BLE.c ****     ***************************************************************************//**
1270:Generated_Source\PSoC4/BLE.c ****     *  This API is used to set the local device name - a Characteristic of the 
1271:Generated_Source\PSoC4/BLE.c ****     *  GAP Service. If the characteristic length entered in the component customizer
1272:Generated_Source\PSoC4/BLE.c ****     *  is shorter than the string specified by the "name" parameter, the local device
1273:Generated_Source\PSoC4/BLE.c ****     *  name will be cut to the length specified in the customizer.
1274:Generated_Source\PSoC4/BLE.c ****     * 
1275:Generated_Source\PSoC4/BLE.c ****     *  \param name: The local device name string. The name string to be written as
1276:Generated_Source\PSoC4/BLE.c ****     *              the local device name. It represents a UTF-8 encoded User
1277:Generated_Source\PSoC4/BLE.c ****     *              Friendly Descriptive Name for the device. The length of the local
1278:Generated_Source\PSoC4/BLE.c ****     *              device string is entered into the component customizer and it can
1279:Generated_Source\PSoC4/BLE.c ****     *              be set to a value from 0 to 248 bytes. If the name contained in
1280:Generated_Source\PSoC4/BLE.c ****     *              the parameter is shorter than the length from the customizer, the
1281:Generated_Source\PSoC4/BLE.c ****     *              end of the name is indicated by a NULL octet (0x00).
ARM GAS  C:\Users\black\AppData\Local\Temp\ccj7eVXi.s 			page 49


1282:Generated_Source\PSoC4/BLE.c ****     * 
1283:Generated_Source\PSoC4/BLE.c ****     * \return
1284:Generated_Source\PSoC4/BLE.c ****     *  CYBLE_API_RESULT_T : Return value indicates if the function succeeded or 
1285:Generated_Source\PSoC4/BLE.c ****     *  failed. Following are the possible error codes.
1286:Generated_Source\PSoC4/BLE.c ****     *
1287:Generated_Source\PSoC4/BLE.c ****     *   Errors codes                       | Description
1288:Generated_Source\PSoC4/BLE.c ****     *   ------------                       | -----------
1289:Generated_Source\PSoC4/BLE.c ****     *   CYBLE_ERROR_OK                     | Function completed successfully.
1290:Generated_Source\PSoC4/BLE.c ****     *   CYBLE_ERROR_INVALID_PARAMETER      | On specifying NULL as input parameter
1291:Generated_Source\PSoC4/BLE.c ****     *  
1292:Generated_Source\PSoC4/BLE.c ****     *******************************************************************************/
1293:Generated_Source\PSoC4/BLE.c ****     CYBLE_API_RESULT_T CyBle_GapSetLocalName(const char8 name[])
1294:Generated_Source\PSoC4/BLE.c ****     {
 1434              		.loc 1 1294 0
 1435              		.cfi_startproc
 1436              		@ args = 0, pretend = 0, frame = 24
 1437              		@ frame_needed = 1, uses_anonymous_args = 0
 1438 0000 80B5     		push	{r7, lr}
 1439              		.cfi_def_cfa_offset 8
 1440              		.cfi_offset 7, -8
 1441              		.cfi_offset 14, -4
 1442 0002 86B0     		sub	sp, sp, #24
 1443              		.cfi_def_cfa_offset 32
 1444 0004 00AF     		add	r7, sp, #0
 1445              		.cfi_def_cfa_register 7
 1446 0006 7860     		str	r0, [r7, #4]
1295:Generated_Source\PSoC4/BLE.c ****         CYBLE_API_RESULT_T apiResult = CYBLE_ERROR_OK;
 1447              		.loc 1 1295 0
 1448 0008 1623     		movs	r3, #22
 1449 000a FB18     		adds	r3, r7, r3
 1450 000c 0022     		movs	r2, #0
 1451 000e 1A80     		strh	r2, [r3]
1296:Generated_Source\PSoC4/BLE.c ****         uint8 i;
1297:Generated_Source\PSoC4/BLE.c ****         char8 *ptr;
1298:Generated_Source\PSoC4/BLE.c ****         uint8 charLen;
1299:Generated_Source\PSoC4/BLE.c **** 
1300:Generated_Source\PSoC4/BLE.c ****         if(NULL != name)
 1452              		.loc 1 1300 0
 1453 0010 7B68     		ldr	r3, [r7, #4]
 1454 0012 002B     		cmp	r3, #0
 1455 0014 5CD0     		beq	.L77
1301:Generated_Source\PSoC4/BLE.c ****         {
1302:Generated_Source\PSoC4/BLE.c ****             /* Get the pointer to the Device Name characteristic  */
1303:Generated_Source\PSoC4/BLE.c ****             ptr = (char8 *) CYBLE_GATT_DB_ATTR_GET_ATTR_GEN_PTR(cyBle_gaps.deviceNameCharHandle);
 1456              		.loc 1 1303 0
 1457 0016 344B     		ldr	r3, .L84
 1458 0018 5B88     		ldrh	r3, [r3, #2]
 1459 001a 5A1E     		subs	r2, r3, #1
 1460 001c 3349     		ldr	r1, .L84+4
 1461 001e 1300     		movs	r3, r2
 1462 0020 9B00     		lsls	r3, r3, #2
 1463 0022 9B18     		adds	r3, r3, r2
 1464 0024 9B00     		lsls	r3, r3, #2
 1465 0026 CB18     		adds	r3, r1, r3
 1466 0028 1033     		adds	r3, r3, #16
 1467 002a 1B68     		ldr	r3, [r3]
 1468 002c 5B68     		ldr	r3, [r3, #4]
ARM GAS  C:\Users\black\AppData\Local\Temp\ccj7eVXi.s 			page 50


 1469 002e 3B61     		str	r3, [r7, #16]
1304:Generated_Source\PSoC4/BLE.c **** 
1305:Generated_Source\PSoC4/BLE.c ****             /* First need to get the maximum length of the characteristic data in the GATT
1306:Generated_Source\PSoC4/BLE.c ****                 database to make sure there is enough place for the data. The length
1307:Generated_Source\PSoC4/BLE.c ****                 can't be longer than 248, so only the LSB of 16 bit of length is to
1308:Generated_Source\PSoC4/BLE.c ****                 be used. */
1309:Generated_Source\PSoC4/BLE.c ****             charLen = (uint8)CYBLE_GATT_DB_ATTR_GET_ATTR_GEN_MAX_LEN(cyBle_gaps.deviceNameCharHandl
 1470              		.loc 1 1309 0
 1471 0030 2D4B     		ldr	r3, .L84
 1472 0032 5B88     		ldrh	r3, [r3, #2]
 1473 0034 5A1E     		subs	r2, r3, #1
 1474 0036 2D49     		ldr	r1, .L84+4
 1475 0038 1300     		movs	r3, r2
 1476 003a 9B00     		lsls	r3, r3, #2
 1477 003c 9B18     		adds	r3, r3, r2
 1478 003e 9B00     		lsls	r3, r3, #2
 1479 0040 CB18     		adds	r3, r1, r3
 1480 0042 0C33     		adds	r3, r3, #12
 1481 0044 1A88     		ldrh	r2, [r3]
 1482 0046 0F23     		movs	r3, #15
 1483 0048 FB18     		adds	r3, r7, r3
 1484 004a 1A70     		strb	r2, [r3]
1310:Generated_Source\PSoC4/BLE.c **** 
1311:Generated_Source\PSoC4/BLE.c ****             /* Copy name into characteristic */
1312:Generated_Source\PSoC4/BLE.c ****             for(i = 0u; ((i < charLen) && (CYBLE_NULL_CHARCTER != name[i])); i++)
 1485              		.loc 1 1312 0
 1486 004c 1523     		movs	r3, #21
 1487 004e FB18     		adds	r3, r7, r3
 1488 0050 0022     		movs	r2, #0
 1489 0052 1A70     		strb	r2, [r3]
 1490 0054 12E0     		b	.L78
 1491              	.L80:
1313:Generated_Source\PSoC4/BLE.c ****             {
1314:Generated_Source\PSoC4/BLE.c ****                 ptr[i] = name[i];
 1492              		.loc 1 1314 0 discriminator 4
 1493 0056 1523     		movs	r3, #21
 1494 0058 FB18     		adds	r3, r7, r3
 1495 005a 1B78     		ldrb	r3, [r3]
 1496 005c 3A69     		ldr	r2, [r7, #16]
 1497 005e D318     		adds	r3, r2, r3
 1498 0060 1522     		movs	r2, #21
 1499 0062 BA18     		adds	r2, r7, r2
 1500 0064 1278     		ldrb	r2, [r2]
 1501 0066 7968     		ldr	r1, [r7, #4]
 1502 0068 8A18     		adds	r2, r1, r2
 1503 006a 1278     		ldrb	r2, [r2]
 1504 006c 1A70     		strb	r2, [r3]
1312:Generated_Source\PSoC4/BLE.c ****             {
 1505              		.loc 1 1312 0 discriminator 4
 1506 006e 1523     		movs	r3, #21
 1507 0070 FB18     		adds	r3, r7, r3
 1508 0072 1A78     		ldrb	r2, [r3]
 1509 0074 1523     		movs	r3, #21
 1510 0076 FB18     		adds	r3, r7, r3
 1511 0078 0132     		adds	r2, r2, #1
 1512 007a 1A70     		strb	r2, [r3]
 1513              	.L78:
ARM GAS  C:\Users\black\AppData\Local\Temp\ccj7eVXi.s 			page 51


1312:Generated_Source\PSoC4/BLE.c ****             {
 1514              		.loc 1 1312 0 is_stmt 0 discriminator 1
 1515 007c 1523     		movs	r3, #21
 1516 007e FA18     		adds	r2, r7, r3
 1517 0080 0F23     		movs	r3, #15
 1518 0082 FB18     		adds	r3, r7, r3
 1519 0084 1278     		ldrb	r2, [r2]
 1520 0086 1B78     		ldrb	r3, [r3]
 1521 0088 9A42     		cmp	r2, r3
 1522 008a 07D2     		bcs	.L79
1312:Generated_Source\PSoC4/BLE.c ****             {
 1523              		.loc 1 1312 0 discriminator 3
 1524 008c 1523     		movs	r3, #21
 1525 008e FB18     		adds	r3, r7, r3
 1526 0090 1B78     		ldrb	r3, [r3]
 1527 0092 7A68     		ldr	r2, [r7, #4]
 1528 0094 D318     		adds	r3, r2, r3
 1529 0096 1B78     		ldrb	r3, [r3]
 1530 0098 002B     		cmp	r3, #0
 1531 009a DCD1     		bne	.L80
 1532              	.L79:
1315:Generated_Source\PSoC4/BLE.c ****             }
1316:Generated_Source\PSoC4/BLE.c **** 
1317:Generated_Source\PSoC4/BLE.c ****             if(i < charLen)
 1533              		.loc 1 1317 0 is_stmt 1
 1534 009c 1523     		movs	r3, #21
 1535 009e FA18     		adds	r2, r7, r3
 1536 00a0 0F23     		movs	r3, #15
 1537 00a2 FB18     		adds	r3, r7, r3
 1538 00a4 1278     		ldrb	r2, [r2]
 1539 00a6 1B78     		ldrb	r3, [r3]
 1540 00a8 9A42     		cmp	r2, r3
 1541 00aa 06D2     		bcs	.L81
1318:Generated_Source\PSoC4/BLE.c ****             {
1319:Generated_Source\PSoC4/BLE.c ****                 /* Terminate string */
1320:Generated_Source\PSoC4/BLE.c ****                 ptr[i] = CYBLE_NULL_CHARCTER;
 1542              		.loc 1 1320 0
 1543 00ac 1523     		movs	r3, #21
 1544 00ae FB18     		adds	r3, r7, r3
 1545 00b0 1B78     		ldrb	r3, [r3]
 1546 00b2 3A69     		ldr	r2, [r7, #16]
 1547 00b4 D318     		adds	r3, r2, r3
 1548 00b6 0022     		movs	r2, #0
 1549 00b8 1A70     		strb	r2, [r3]
 1550              	.L81:
1321:Generated_Source\PSoC4/BLE.c ****             }
1322:Generated_Source\PSoC4/BLE.c ****             
1323:Generated_Source\PSoC4/BLE.c ****             /* Set new actual length */
1324:Generated_Source\PSoC4/BLE.c ****             
1325:Generated_Source\PSoC4/BLE.c ****             /* Update device name in advertising and scan response structure */
1326:Generated_Source\PSoC4/BLE.c ****             #if(CYBLE_GAP_ROLE_PERIPHERAL)
1327:Generated_Source\PSoC4/BLE.c ****                 CyBle_ChangeAdLocalName(name, 0u);
 1551              		.loc 1 1327 0
 1552 00ba 7B68     		ldr	r3, [r7, #4]
 1553 00bc 0021     		movs	r1, #0
 1554 00be 1800     		movs	r0, r3
 1555 00c0 FFF7FEFF 		bl	CyBle_ChangeAdLocalName
ARM GAS  C:\Users\black\AppData\Local\Temp\ccj7eVXi.s 			page 52


1328:Generated_Source\PSoC4/BLE.c ****                 CyBle_ChangeAdLocalName(name, 1u);
 1556              		.loc 1 1328 0
 1557 00c4 7B68     		ldr	r3, [r7, #4]
 1558 00c6 0121     		movs	r1, #1
 1559 00c8 1800     		movs	r0, r3
 1560 00ca FFF7FEFF 		bl	CyBle_ChangeAdLocalName
 1561 00ce 03E0     		b	.L82
 1562              	.L77:
1329:Generated_Source\PSoC4/BLE.c ****             #endif /* (CYBLE_GAP_ROLE_PERIPHERAL) */
1330:Generated_Source\PSoC4/BLE.c ****         }
1331:Generated_Source\PSoC4/BLE.c ****         else
1332:Generated_Source\PSoC4/BLE.c ****         {
1333:Generated_Source\PSoC4/BLE.c ****             apiResult = CYBLE_ERROR_INVALID_PARAMETER;
 1563              		.loc 1 1333 0
 1564 00d0 1623     		movs	r3, #22
 1565 00d2 FB18     		adds	r3, r7, r3
 1566 00d4 0122     		movs	r2, #1
 1567 00d6 1A80     		strh	r2, [r3]
 1568              	.L82:
1334:Generated_Source\PSoC4/BLE.c ****         }
1335:Generated_Source\PSoC4/BLE.c ****         
1336:Generated_Source\PSoC4/BLE.c ****         return(apiResult);
 1569              		.loc 1 1336 0
 1570 00d8 1623     		movs	r3, #22
 1571 00da FB18     		adds	r3, r7, r3
 1572 00dc 1B88     		ldrh	r3, [r3]
1337:Generated_Source\PSoC4/BLE.c ****     }
 1573              		.loc 1 1337 0
 1574 00de 1800     		movs	r0, r3
 1575 00e0 BD46     		mov	sp, r7
 1576 00e2 06B0     		add	sp, sp, #24
 1577              		@ sp needed
 1578 00e4 80BD     		pop	{r7, pc}
 1579              	.L85:
 1580 00e6 C046     		.align	2
 1581              	.L84:
 1582 00e8 00000000 		.word	cyBle_gaps
 1583 00ec 00000000 		.word	cyBle_gattDB
 1584              		.cfi_endproc
 1585              	.LFE12:
 1586              		.size	CyBle_GapSetLocalName, .-CyBle_GapSetLocalName
 1587              		.section	.text.CyBle_GapGetLocalName,"ax",%progbits
 1588              		.align	2
 1589              		.global	CyBle_GapGetLocalName
 1590              		.code	16
 1591              		.thumb_func
 1592              		.type	CyBle_GapGetLocalName, %function
 1593              	CyBle_GapGetLocalName:
 1594              	.LFB13:
1338:Generated_Source\PSoC4/BLE.c **** 
1339:Generated_Source\PSoC4/BLE.c **** 
1340:Generated_Source\PSoC4/BLE.c ****     /******************************************************************************
1341:Generated_Source\PSoC4/BLE.c ****     * Function Name: CyBle_GapGetLocalName
1342:Generated_Source\PSoC4/BLE.c ****     ***************************************************************************//**
1343:Generated_Source\PSoC4/BLE.c ****     *  
1344:Generated_Source\PSoC4/BLE.c ****     *  This API is used to read the local device name - a Characteristic of the 
1345:Generated_Source\PSoC4/BLE.c ****     *  GAP Service.
ARM GAS  C:\Users\black\AppData\Local\Temp\ccj7eVXi.s 			page 53


1346:Generated_Source\PSoC4/BLE.c ****     * 
1347:Generated_Source\PSoC4/BLE.c ****     * \param name: The local device name string. Used to read the local name to the
1348:Generated_Source\PSoC4/BLE.c ****     *             given string array. It represents a UTF-8 encoded User Friendly 
1349:Generated_Source\PSoC4/BLE.c ****     *             Descriptive Name for the device. The length of the local device
1350:Generated_Source\PSoC4/BLE.c ****     *             string is entered into the component customizer and it can be set
1351:Generated_Source\PSoC4/BLE.c ****     *             to a value from 0 to 248 bytes. If the name contained in the
1352:Generated_Source\PSoC4/BLE.c ****     *             parameter is shorter than the length from the customizer, the end
1353:Generated_Source\PSoC4/BLE.c ****     *             of the name is indicated by a NULL octet (0x00).
1354:Generated_Source\PSoC4/BLE.c ****     * 
1355:Generated_Source\PSoC4/BLE.c ****     * \return
1356:Generated_Source\PSoC4/BLE.c ****     *  CYBLE_API_RESULT_T : Return value indicates if the function succeeded or 
1357:Generated_Source\PSoC4/BLE.c ****     *  failed. Following are the possible error codes.
1358:Generated_Source\PSoC4/BLE.c ****     *
1359:Generated_Source\PSoC4/BLE.c ****     *   Errors codes                       | Description
1360:Generated_Source\PSoC4/BLE.c ****     *   ------------                       | -----------
1361:Generated_Source\PSoC4/BLE.c ****     *   CYBLE_ERROR_OK                     | Function completed successfully.
1362:Generated_Source\PSoC4/BLE.c ****     *   CYBLE_ERROR_INVALID_PARAMETER      | On specifying NULL as input parameter
1363:Generated_Source\PSoC4/BLE.c ****     *
1364:Generated_Source\PSoC4/BLE.c ****     *******************************************************************************/
1365:Generated_Source\PSoC4/BLE.c ****     CYBLE_API_RESULT_T CyBle_GapGetLocalName(char8 name[])
1366:Generated_Source\PSoC4/BLE.c ****     {
 1595              		.loc 1 1366 0
 1596              		.cfi_startproc
 1597              		@ args = 0, pretend = 0, frame = 24
 1598              		@ frame_needed = 1, uses_anonymous_args = 0
 1599 0000 80B5     		push	{r7, lr}
 1600              		.cfi_def_cfa_offset 8
 1601              		.cfi_offset 7, -8
 1602              		.cfi_offset 14, -4
 1603 0002 86B0     		sub	sp, sp, #24
 1604              		.cfi_def_cfa_offset 32
 1605 0004 00AF     		add	r7, sp, #0
 1606              		.cfi_def_cfa_register 7
 1607 0006 7860     		str	r0, [r7, #4]
1367:Generated_Source\PSoC4/BLE.c ****         CYBLE_API_RESULT_T apiResult = CYBLE_ERROR_OK;
 1608              		.loc 1 1367 0
 1609 0008 1623     		movs	r3, #22
 1610 000a FB18     		adds	r3, r7, r3
 1611 000c 0022     		movs	r2, #0
 1612 000e 1A80     		strh	r2, [r3]
1368:Generated_Source\PSoC4/BLE.c ****         uint8 charLen;
1369:Generated_Source\PSoC4/BLE.c ****         uint8 i;
1370:Generated_Source\PSoC4/BLE.c ****         char8 *ptr;
1371:Generated_Source\PSoC4/BLE.c **** 
1372:Generated_Source\PSoC4/BLE.c ****         if(NULL != name)
 1613              		.loc 1 1372 0
 1614 0010 7B68     		ldr	r3, [r7, #4]
 1615 0012 002B     		cmp	r3, #0
 1616 0014 4BD0     		beq	.L87
1373:Generated_Source\PSoC4/BLE.c ****         {
1374:Generated_Source\PSoC4/BLE.c ****             /* Get the pointer to the Device Name characteristic  */
1375:Generated_Source\PSoC4/BLE.c ****             ptr = (char8 *) CYBLE_GATT_DB_ATTR_GET_ATTR_GEN_PTR(cyBle_gaps.deviceNameCharHandle);
 1617              		.loc 1 1375 0
 1618 0016 2B4B     		ldr	r3, .L93
 1619 0018 5B88     		ldrh	r3, [r3, #2]
 1620 001a 5A1E     		subs	r2, r3, #1
 1621 001c 2A49     		ldr	r1, .L93+4
ARM GAS  C:\Users\black\AppData\Local\Temp\ccj7eVXi.s 			page 54


 1622 001e 1300     		movs	r3, r2
 1623 0020 9B00     		lsls	r3, r3, #2
 1624 0022 9B18     		adds	r3, r3, r2
 1625 0024 9B00     		lsls	r3, r3, #2
 1626 0026 CB18     		adds	r3, r1, r3
 1627 0028 1033     		adds	r3, r3, #16
 1628 002a 1B68     		ldr	r3, [r3]
 1629 002c 5B68     		ldr	r3, [r3, #4]
 1630 002e 3B61     		str	r3, [r7, #16]
1376:Generated_Source\PSoC4/BLE.c **** 
1377:Generated_Source\PSoC4/BLE.c ****             /* First need to get the length of the characteristic data in the GATT
1378:Generated_Source\PSoC4/BLE.c ****                 database to make sure there is enough place for the data. The length
1379:Generated_Source\PSoC4/BLE.c ****                 can't be longer than 248, so only the LSB of 16 bit of length is to
1380:Generated_Source\PSoC4/BLE.c ****                 be used. */
1381:Generated_Source\PSoC4/BLE.c ****             charLen = (uint8)CYBLE_GATT_DB_ATTR_GET_ATTR_GEN_LEN(cyBle_gaps.deviceNameCharHandle);
 1631              		.loc 1 1381 0
 1632 0030 244B     		ldr	r3, .L93
 1633 0032 5B88     		ldrh	r3, [r3, #2]
 1634 0034 5A1E     		subs	r2, r3, #1
 1635 0036 2449     		ldr	r1, .L93+4
 1636 0038 1300     		movs	r3, r2
 1637 003a 9B00     		lsls	r3, r3, #2
 1638 003c 9B18     		adds	r3, r3, r2
 1639 003e 9B00     		lsls	r3, r3, #2
 1640 0040 CB18     		adds	r3, r1, r3
 1641 0042 1033     		adds	r3, r3, #16
 1642 0044 1B68     		ldr	r3, [r3]
 1643 0046 1A88     		ldrh	r2, [r3]
 1644 0048 0F23     		movs	r3, #15
 1645 004a FB18     		adds	r3, r7, r3
 1646 004c 1A70     		strb	r2, [r3]
1382:Generated_Source\PSoC4/BLE.c **** 
1383:Generated_Source\PSoC4/BLE.c ****             /* Copy name from characteristic */
1384:Generated_Source\PSoC4/BLE.c ****             for(i = 0u; ((i < charLen) && (CYBLE_NULL_CHARCTER != ptr[i])); i++)
 1647              		.loc 1 1384 0
 1648 004e 1523     		movs	r3, #21
 1649 0050 FB18     		adds	r3, r7, r3
 1650 0052 0022     		movs	r2, #0
 1651 0054 1A70     		strb	r2, [r3]
 1652 0056 12E0     		b	.L88
 1653              	.L90:
1385:Generated_Source\PSoC4/BLE.c ****             {
1386:Generated_Source\PSoC4/BLE.c ****                 name[i] = ptr[i];
 1654              		.loc 1 1386 0 discriminator 4
 1655 0058 1523     		movs	r3, #21
 1656 005a FB18     		adds	r3, r7, r3
 1657 005c 1B78     		ldrb	r3, [r3]
 1658 005e 7A68     		ldr	r2, [r7, #4]
 1659 0060 D318     		adds	r3, r2, r3
 1660 0062 1522     		movs	r2, #21
 1661 0064 BA18     		adds	r2, r7, r2
 1662 0066 1278     		ldrb	r2, [r2]
 1663 0068 3969     		ldr	r1, [r7, #16]
 1664 006a 8A18     		adds	r2, r1, r2
 1665 006c 1278     		ldrb	r2, [r2]
 1666 006e 1A70     		strb	r2, [r3]
1384:Generated_Source\PSoC4/BLE.c ****             {
ARM GAS  C:\Users\black\AppData\Local\Temp\ccj7eVXi.s 			page 55


 1667              		.loc 1 1384 0 discriminator 4
 1668 0070 1523     		movs	r3, #21
 1669 0072 FB18     		adds	r3, r7, r3
 1670 0074 1A78     		ldrb	r2, [r3]
 1671 0076 1523     		movs	r3, #21
 1672 0078 FB18     		adds	r3, r7, r3
 1673 007a 0132     		adds	r2, r2, #1
 1674 007c 1A70     		strb	r2, [r3]
 1675              	.L88:
1384:Generated_Source\PSoC4/BLE.c ****             {
 1676              		.loc 1 1384 0 is_stmt 0 discriminator 1
 1677 007e 1523     		movs	r3, #21
 1678 0080 FA18     		adds	r2, r7, r3
 1679 0082 0F23     		movs	r3, #15
 1680 0084 FB18     		adds	r3, r7, r3
 1681 0086 1278     		ldrb	r2, [r2]
 1682 0088 1B78     		ldrb	r3, [r3]
 1683 008a 9A42     		cmp	r2, r3
 1684 008c 07D2     		bcs	.L89
1384:Generated_Source\PSoC4/BLE.c ****             {
 1685              		.loc 1 1384 0 discriminator 3
 1686 008e 1523     		movs	r3, #21
 1687 0090 FB18     		adds	r3, r7, r3
 1688 0092 1B78     		ldrb	r3, [r3]
 1689 0094 3A69     		ldr	r2, [r7, #16]
 1690 0096 D318     		adds	r3, r2, r3
 1691 0098 1B78     		ldrb	r3, [r3]
 1692 009a 002B     		cmp	r3, #0
 1693 009c DCD1     		bne	.L90
 1694              	.L89:
1387:Generated_Source\PSoC4/BLE.c ****             }
1388:Generated_Source\PSoC4/BLE.c **** 
1389:Generated_Source\PSoC4/BLE.c ****             /* Terminate string */
1390:Generated_Source\PSoC4/BLE.c ****             name[i] = CYBLE_NULL_CHARCTER;
 1695              		.loc 1 1390 0 is_stmt 1
 1696 009e 1523     		movs	r3, #21
 1697 00a0 FB18     		adds	r3, r7, r3
 1698 00a2 1B78     		ldrb	r3, [r3]
 1699 00a4 7A68     		ldr	r2, [r7, #4]
 1700 00a6 D318     		adds	r3, r2, r3
 1701 00a8 0022     		movs	r2, #0
 1702 00aa 1A70     		strb	r2, [r3]
 1703 00ac 03E0     		b	.L91
 1704              	.L87:
1391:Generated_Source\PSoC4/BLE.c ****         }
1392:Generated_Source\PSoC4/BLE.c ****         else
1393:Generated_Source\PSoC4/BLE.c ****         {
1394:Generated_Source\PSoC4/BLE.c ****             apiResult = CYBLE_ERROR_INVALID_PARAMETER;
 1705              		.loc 1 1394 0
 1706 00ae 1623     		movs	r3, #22
 1707 00b0 FB18     		adds	r3, r7, r3
 1708 00b2 0122     		movs	r2, #1
 1709 00b4 1A80     		strh	r2, [r3]
 1710              	.L91:
1395:Generated_Source\PSoC4/BLE.c ****         }
1396:Generated_Source\PSoC4/BLE.c ****         
1397:Generated_Source\PSoC4/BLE.c ****         return(apiResult);
ARM GAS  C:\Users\black\AppData\Local\Temp\ccj7eVXi.s 			page 56


 1711              		.loc 1 1397 0
 1712 00b6 1623     		movs	r3, #22
 1713 00b8 FB18     		adds	r3, r7, r3
 1714 00ba 1B88     		ldrh	r3, [r3]
1398:Generated_Source\PSoC4/BLE.c ****     }
 1715              		.loc 1 1398 0
 1716 00bc 1800     		movs	r0, r3
 1717 00be BD46     		mov	sp, r7
 1718 00c0 06B0     		add	sp, sp, #24
 1719              		@ sp needed
 1720 00c2 80BD     		pop	{r7, pc}
 1721              	.L94:
 1722              		.align	2
 1723              	.L93:
 1724 00c4 00000000 		.word	cyBle_gaps
 1725 00c8 00000000 		.word	cyBle_gattDB
 1726              		.cfi_endproc
 1727              	.LFE13:
 1728              		.size	CyBle_GapGetLocalName, .-CyBle_GapGetLocalName
 1729              		.section	.text.CyBle_Get16ByPtr,"ax",%progbits
 1730              		.align	2
 1731              		.global	CyBle_Get16ByPtr
 1732              		.code	16
 1733              		.thumb_func
 1734              		.type	CyBle_Get16ByPtr, %function
 1735              	CyBle_Get16ByPtr:
 1736              	.LFB14:
1399:Generated_Source\PSoC4/BLE.c **** 
1400:Generated_Source\PSoC4/BLE.c **** #endif /* (CYBLE_GATT_ROLE_SERVER) */
1401:Generated_Source\PSoC4/BLE.c **** 
1402:Generated_Source\PSoC4/BLE.c **** 
1403:Generated_Source\PSoC4/BLE.c **** /******************************************************************************
1404:Generated_Source\PSoC4/BLE.c **** * Function Name: CyBle_Get16ByPtr
1405:Generated_Source\PSoC4/BLE.c **** ***************************************************************************//**
1406:Generated_Source\PSoC4/BLE.c **** * 
1407:Generated_Source\PSoC4/BLE.c **** *  Returns the two-bytes value by using a pointer to the LSB.
1408:Generated_Source\PSoC4/BLE.c **** * 
1409:Generated_Source\PSoC4/BLE.c **** *  \param ptr: Pointer to the LSB of two-bytes data (little endian).
1410:Generated_Source\PSoC4/BLE.c **** * 
1411:Generated_Source\PSoC4/BLE.c **** *  \return
1412:Generated_Source\PSoC4/BLE.c **** *  uint16: Two-bytes data.
1413:Generated_Source\PSoC4/BLE.c **** * 
1414:Generated_Source\PSoC4/BLE.c **** ******************************************************************************/
1415:Generated_Source\PSoC4/BLE.c **** uint16 CyBle_Get16ByPtr(const uint8 ptr[])
1416:Generated_Source\PSoC4/BLE.c **** {
 1737              		.loc 1 1416 0
 1738              		.cfi_startproc
 1739              		@ args = 0, pretend = 0, frame = 8
 1740              		@ frame_needed = 1, uses_anonymous_args = 0
 1741 0000 80B5     		push	{r7, lr}
 1742              		.cfi_def_cfa_offset 8
 1743              		.cfi_offset 7, -8
 1744              		.cfi_offset 14, -4
 1745 0002 82B0     		sub	sp, sp, #8
 1746              		.cfi_def_cfa_offset 16
 1747 0004 00AF     		add	r7, sp, #0
 1748              		.cfi_def_cfa_register 7
ARM GAS  C:\Users\black\AppData\Local\Temp\ccj7eVXi.s 			page 57


 1749 0006 7860     		str	r0, [r7, #4]
1417:Generated_Source\PSoC4/BLE.c ****     return ((uint16) ptr[0u] | ((uint16) (((uint16) ptr[1u]) << 8u)));
 1750              		.loc 1 1417 0
 1751 0008 7B68     		ldr	r3, [r7, #4]
 1752 000a 1B78     		ldrb	r3, [r3]
 1753 000c 9AB2     		uxth	r2, r3
 1754 000e 7B68     		ldr	r3, [r7, #4]
 1755 0010 0133     		adds	r3, r3, #1
 1756 0012 1B78     		ldrb	r3, [r3]
 1757 0014 9BB2     		uxth	r3, r3
 1758 0016 1B02     		lsls	r3, r3, #8
 1759 0018 9BB2     		uxth	r3, r3
 1760 001a 1343     		orrs	r3, r2
 1761 001c 9BB2     		uxth	r3, r3
1418:Generated_Source\PSoC4/BLE.c **** }
 1762              		.loc 1 1418 0
 1763 001e 1800     		movs	r0, r3
 1764 0020 BD46     		mov	sp, r7
 1765 0022 02B0     		add	sp, sp, #8
 1766              		@ sp needed
 1767 0024 80BD     		pop	{r7, pc}
 1768              		.cfi_endproc
 1769              	.LFE14:
 1770              		.size	CyBle_Get16ByPtr, .-CyBle_Get16ByPtr
 1771 0026 C046     		.section	.text.CyBle_Set16ByPtr,"ax",%progbits
 1772              		.align	2
 1773              		.global	CyBle_Set16ByPtr
 1774              		.code	16
 1775              		.thumb_func
 1776              		.type	CyBle_Set16ByPtr, %function
 1777              	CyBle_Set16ByPtr:
 1778              	.LFB15:
1419:Generated_Source\PSoC4/BLE.c **** 
1420:Generated_Source\PSoC4/BLE.c **** 
1421:Generated_Source\PSoC4/BLE.c **** /******************************************************************************
1422:Generated_Source\PSoC4/BLE.c **** * Function Name: CyBle_Set16ByPtr
1423:Generated_Source\PSoC4/BLE.c **** ***************************************************************************//**
1424:Generated_Source\PSoC4/BLE.c **** * 
1425:Generated_Source\PSoC4/BLE.c **** *  Sets the two-bytes value by using a pointer to the LSB.
1426:Generated_Source\PSoC4/BLE.c **** * 
1427:Generated_Source\PSoC4/BLE.c **** *  \param ptr:    Pointer to the LSB of two-bytes data (little endian).
1428:Generated_Source\PSoC4/BLE.c **** *  \param value:  Two-bytes data to be written.
1429:Generated_Source\PSoC4/BLE.c **** * 
1430:Generated_Source\PSoC4/BLE.c **** *  \return
1431:Generated_Source\PSoC4/BLE.c **** *  None
1432:Generated_Source\PSoC4/BLE.c **** * 
1433:Generated_Source\PSoC4/BLE.c **** ******************************************************************************/
1434:Generated_Source\PSoC4/BLE.c **** void CyBle_Set16ByPtr(uint8 ptr[], uint16 value)
1435:Generated_Source\PSoC4/BLE.c **** {
 1779              		.loc 1 1435 0
 1780              		.cfi_startproc
 1781              		@ args = 0, pretend = 0, frame = 8
 1782              		@ frame_needed = 1, uses_anonymous_args = 0
 1783 0000 80B5     		push	{r7, lr}
 1784              		.cfi_def_cfa_offset 8
 1785              		.cfi_offset 7, -8
 1786              		.cfi_offset 14, -4
ARM GAS  C:\Users\black\AppData\Local\Temp\ccj7eVXi.s 			page 58


 1787 0002 82B0     		sub	sp, sp, #8
 1788              		.cfi_def_cfa_offset 16
 1789 0004 00AF     		add	r7, sp, #0
 1790              		.cfi_def_cfa_register 7
 1791 0006 7860     		str	r0, [r7, #4]
 1792 0008 0A00     		movs	r2, r1
 1793 000a BB1C     		adds	r3, r7, #2
 1794 000c 1A80     		strh	r2, [r3]
1436:Generated_Source\PSoC4/BLE.c ****     ptr[0u] = (uint8) value;
 1795              		.loc 1 1436 0
 1796 000e BB1C     		adds	r3, r7, #2
 1797 0010 1B88     		ldrh	r3, [r3]
 1798 0012 DAB2     		uxtb	r2, r3
 1799 0014 7B68     		ldr	r3, [r7, #4]
 1800 0016 1A70     		strb	r2, [r3]
1437:Generated_Source\PSoC4/BLE.c ****     ptr[1u] = (uint8) (value >> 8u);
 1801              		.loc 1 1437 0
 1802 0018 7B68     		ldr	r3, [r7, #4]
 1803 001a 0133     		adds	r3, r3, #1
 1804 001c BA1C     		adds	r2, r7, #2
 1805 001e 1288     		ldrh	r2, [r2]
 1806 0020 120A     		lsrs	r2, r2, #8
 1807 0022 92B2     		uxth	r2, r2
 1808 0024 D2B2     		uxtb	r2, r2
 1809 0026 1A70     		strb	r2, [r3]
1438:Generated_Source\PSoC4/BLE.c **** }
 1810              		.loc 1 1438 0
 1811 0028 C046     		nop
 1812 002a BD46     		mov	sp, r7
 1813 002c 02B0     		add	sp, sp, #8
 1814              		@ sp needed
 1815 002e 80BD     		pop	{r7, pc}
 1816              		.cfi_endproc
 1817              	.LFE15:
 1818              		.size	CyBle_Set16ByPtr, .-CyBle_Set16ByPtr
 1819              		.text
 1820              	.Letext0:
 1821              		.file 2 "Generated_Source\\PSoC4\\cytypes.h"
 1822              		.file 3 "Generated_Source\\PSoC4\\BLE_Stack.h"
 1823              		.file 4 "Generated_Source\\PSoC4\\BLE_StackGap.h"
 1824              		.file 5 "Generated_Source\\PSoC4\\BLE_StackGatt.h"
 1825              		.file 6 "Generated_Source\\PSoC4\\BLE_StackGattDb.h"
 1826              		.file 7 "Generated_Source\\PSoC4\\BLE.h"
 1827              		.file 8 "Generated_Source\\PSoC4\\BLE_gatt.h"
 1828              		.file 9 "Generated_Source\\PSoC4\\BLE_dis.h"
 1829              		.file 10 "Generated_Source\\PSoC4\\BLE_eventHandler.h"