ARM GAS  C:\Users\black\AppData\Local\Temp\cclqIoJC.s 			page 1


   1              		.syntax unified
   2              		.cpu cortex-m0
   3              		.fpu softvfp
   4              		.eabi_attribute 20, 1
   5              		.eabi_attribute 21, 1
   6              		.eabi_attribute 23, 3
   7              		.eabi_attribute 24, 1
   8              		.eabi_attribute 25, 1
   9              		.eabi_attribute 26, 1
  10              		.eabi_attribute 30, 6
  11              		.eabi_attribute 34, 0
  12              		.eabi_attribute 18, 4
  13              		.thumb
  14              		.syntax unified
  15              		.file	"debug.c"
  16              		.text
  17              	.Ltext0:
  18              		.cfi_sections	.debug_frame
  19              		.section	.text._write,"ax",%progbits
  20              		.align	2
  21              		.global	_write
  22              		.code	16
  23              		.thumb_func
  24              		.type	_write, %function
  25              	_write:
  26              	.LFB36:
  27              		.file 1 "debug.c"
   1:debug.c       **** /*******************************************************************************
   2:debug.c       **** * File Name: debug.c
   3:debug.c       **** *
   4:debug.c       **** * Version: 1.0
   5:debug.c       **** *
   6:debug.c       **** * Description:
   7:debug.c       **** *  This file contains functions for printf functionality.
   8:debug.c       **** *
   9:debug.c       **** * Hardware Dependency:
  10:debug.c       **** *  CY8CKIT-042 BLE
  11:debug.c       **** * 
  12:debug.c       **** ********************************************************************************
  13:debug.c       **** * Copyright 2016, Cypress Semiconductor Corporation.  All rights reserved.
  14:debug.c       **** * You may use this file only in accordance with the license, terms, conditions,
  15:debug.c       **** * disclaimers, and limitations in the end user license agreement accompanying
  16:debug.c       **** * the software package with which this file was provided.
  17:debug.c       **** *******************************************************************************/
  18:debug.c       **** 
  19:debug.c       **** #include "common.h"
  20:debug.c       **** 
  21:debug.c       **** #if (DEBUG_UART_ENABLED == ENABLED)
  22:debug.c       **** 
  23:debug.c       **** #if defined(__ARMCC_VERSION)
  24:debug.c       ****     
  25:debug.c       **** /* For MDK/RVDS compiler revise fputc function for printf functionality */
  26:debug.c       **** struct __FILE 
  27:debug.c       **** {
  28:debug.c       ****     int handle;  
  29:debug.c       **** };
  30:debug.c       **** 
ARM GAS  C:\Users\black\AppData\Local\Temp\cclqIoJC.s 			page 2


  31:debug.c       **** enum 
  32:debug.c       **** {
  33:debug.c       ****     STDIN_HANDLE,
  34:debug.c       ****     STDOUT_HANDLE,
  35:debug.c       ****     STDERR_HANDLE
  36:debug.c       **** };
  37:debug.c       **** 
  38:debug.c       **** FILE __stdin = {STDIN_HANDLE};
  39:debug.c       **** FILE __stdout = {STDOUT_HANDLE};
  40:debug.c       **** FILE __stderr = {STDERR_HANDLE};
  41:debug.c       **** 
  42:debug.c       **** int fputc(int ch, FILE *file) 
  43:debug.c       **** {
  44:debug.c       ****     int ret = EOF;
  45:debug.c       **** 
  46:debug.c       ****     switch( file->handle )
  47:debug.c       ****     {
  48:debug.c       ****         case STDOUT_HANDLE:
  49:debug.c       ****             UART_DEB_UartPutChar(ch);
  50:debug.c       ****             ret = ch ;
  51:debug.c       ****             break ;
  52:debug.c       **** 
  53:debug.c       ****         case STDERR_HANDLE:
  54:debug.c       ****             ret = ch ;
  55:debug.c       ****             break ;
  56:debug.c       **** 
  57:debug.c       ****         default:
  58:debug.c       ****             file = file;
  59:debug.c       ****             break ;
  60:debug.c       ****     }
  61:debug.c       ****     return ret ;
  62:debug.c       **** }
  63:debug.c       **** 
  64:debug.c       **** #elif defined (__ICCARM__)      /* IAR */
  65:debug.c       **** 
  66:debug.c       **** /* For IAR compiler revise __write() function for printf functionality */
  67:debug.c       **** size_t __write(int handle, const unsigned char * buffer, size_t size)
  68:debug.c       **** {
  69:debug.c       ****     size_t nChars = 0;
  70:debug.c       **** 
  71:debug.c       ****     if (buffer == 0)
  72:debug.c       ****     {
  73:debug.c       ****         /*
  74:debug.c       ****          * This means that we should flush internal buffers.  Since we
  75:debug.c       ****          * don't we just return.  (Remember, "handle" == -1 means that all
  76:debug.c       ****          * handles should be flushed.)
  77:debug.c       ****          */
  78:debug.c       ****         return (0);
  79:debug.c       ****     }
  80:debug.c       **** 
  81:debug.c       ****     for (/* Empty */; size != 0; --size)
  82:debug.c       ****     {
  83:debug.c       ****         UART_DEB_UartPutChar(*buffer++);
  84:debug.c       ****         ++nChars;
  85:debug.c       ****     }
  86:debug.c       **** 
  87:debug.c       ****     return (nChars);
ARM GAS  C:\Users\black\AppData\Local\Temp\cclqIoJC.s 			page 3


  88:debug.c       **** }
  89:debug.c       **** 
  90:debug.c       **** #else  /* (__GNUC__)  GCC */
  91:debug.c       **** 
  92:debug.c       **** /* For GCC compiler revise _write() function for printf functionality */
  93:debug.c       **** int _write(int file, char *ptr, int len)
  94:debug.c       **** {
  28              		.loc 1 94 0
  29              		.cfi_startproc
  30              		@ args = 0, pretend = 0, frame = 24
  31              		@ frame_needed = 1, uses_anonymous_args = 0
  32 0000 80B5     		push	{r7, lr}
  33              		.cfi_def_cfa_offset 8
  34              		.cfi_offset 7, -8
  35              		.cfi_offset 14, -4
  36 0002 86B0     		sub	sp, sp, #24
  37              		.cfi_def_cfa_offset 32
  38 0004 00AF     		add	r7, sp, #0
  39              		.cfi_def_cfa_register 7
  40 0006 F860     		str	r0, [r7, #12]
  41 0008 B960     		str	r1, [r7, #8]
  42 000a 7A60     		str	r2, [r7, #4]
  95:debug.c       ****     int i;
  96:debug.c       ****     file = file;
  97:debug.c       ****     for (i = 0; i < len; i++)
  43              		.loc 1 97 0
  44 000c 0023     		movs	r3, #0
  45 000e 7B61     		str	r3, [r7, #20]
  46 0010 09E0     		b	.L2
  47              	.L3:
  98:debug.c       ****     {
  99:debug.c       ****         UART_DEB_UartPutChar(*ptr++);
  48              		.loc 1 99 0 discriminator 3
  49 0012 BB68     		ldr	r3, [r7, #8]
  50 0014 5A1C     		adds	r2, r3, #1
  51 0016 BA60     		str	r2, [r7, #8]
  52 0018 1B78     		ldrb	r3, [r3]
  53 001a 1800     		movs	r0, r3
  54 001c FFF7FEFF 		bl	UART_DEB_SpiUartWriteTxData
  97:debug.c       ****     {
  55              		.loc 1 97 0 discriminator 3
  56 0020 7B69     		ldr	r3, [r7, #20]
  57 0022 0133     		adds	r3, r3, #1
  58 0024 7B61     		str	r3, [r7, #20]
  59              	.L2:
  97:debug.c       ****     {
  60              		.loc 1 97 0 is_stmt 0 discriminator 1
  61 0026 7A69     		ldr	r2, [r7, #20]
  62 0028 7B68     		ldr	r3, [r7, #4]
  63 002a 9A42     		cmp	r2, r3
  64 002c F1DB     		blt	.L3
 100:debug.c       ****     }
 101:debug.c       ****     return len;
  65              		.loc 1 101 0 is_stmt 1
  66 002e 7B68     		ldr	r3, [r7, #4]
 102:debug.c       **** }
  67              		.loc 1 102 0
ARM GAS  C:\Users\black\AppData\Local\Temp\cclqIoJC.s 			page 4


  68 0030 1800     		movs	r0, r3
  69 0032 BD46     		mov	sp, r7
  70 0034 06B0     		add	sp, sp, #24
  71              		@ sp needed
  72 0036 80BD     		pop	{r7, pc}
  73              		.cfi_endproc
  74              	.LFE36:
  75              		.size	_write, .-_write
  76              		.section	.rodata
  77              		.align	2
  78              	.LC0:
  79 0000 25322E32 		.ascii	"%2.2x \000"
  79      782000
  80 0007 00       		.align	2
  81              	.LC2:
  82 0008 0D00     		.ascii	"\015\000"
  83              		.section	.text.ShowValue,"ax",%progbits
  84              		.align	2
  85              		.global	ShowValue
  86              		.code	16
  87              		.thumb_func
  88              		.type	ShowValue, %function
  89              	ShowValue:
  90              	.LFB37:
 103:debug.c       **** 
 104:debug.c       **** 
 105:debug.c       **** #endif  /* (__ARMCC_VERSION) */   
 106:debug.c       **** 
 107:debug.c       **** #endif /* DEBUG_UART_ENABLED == ENABLED */
 108:debug.c       **** 
 109:debug.c       **** void ShowValue(CYBLE_GATT_VALUE_T *value)
 110:debug.c       **** {
  91              		.loc 1 110 0
  92              		.cfi_startproc
  93              		@ args = 0, pretend = 0, frame = 16
  94              		@ frame_needed = 1, uses_anonymous_args = 0
  95 0000 80B5     		push	{r7, lr}
  96              		.cfi_def_cfa_offset 8
  97              		.cfi_offset 7, -8
  98              		.cfi_offset 14, -4
  99 0002 84B0     		sub	sp, sp, #16
 100              		.cfi_def_cfa_offset 24
 101 0004 00AF     		add	r7, sp, #0
 102              		.cfi_def_cfa_register 7
 103 0006 7860     		str	r0, [r7, #4]
 111:debug.c       ****     int16 i;
 112:debug.c       ****     
 113:debug.c       ****     for(i = 0; i < value->len; i++)
 104              		.loc 1 113 0
 105 0008 0E23     		movs	r3, #14
 106 000a FB18     		adds	r3, r7, r3
 107 000c 0022     		movs	r2, #0
 108 000e 1A80     		strh	r2, [r3]
 109 0010 17E0     		b	.L6
 110              	.L7:
 114:debug.c       ****     {
 115:debug.c       ****         DBG_PRINTF("%2.2x ", value->val[i]);
ARM GAS  C:\Users\black\AppData\Local\Temp\cclqIoJC.s 			page 5


 111              		.loc 1 115 0 discriminator 3
 112 0012 7B68     		ldr	r3, [r7, #4]
 113 0014 1A68     		ldr	r2, [r3]
 114 0016 0E23     		movs	r3, #14
 115 0018 FB18     		adds	r3, r7, r3
 116 001a 0021     		movs	r1, #0
 117 001c 5B5E     		ldrsh	r3, [r3, r1]
 118 001e D318     		adds	r3, r2, r3
 119 0020 1B78     		ldrb	r3, [r3]
 120 0022 1A00     		movs	r2, r3
 121 0024 0F4B     		ldr	r3, .L8
 122 0026 1100     		movs	r1, r2
 123 0028 1800     		movs	r0, r3
 124 002a FFF7FEFF 		bl	printf
 113:debug.c       ****     {
 125              		.loc 1 113 0 discriminator 3
 126 002e 0E23     		movs	r3, #14
 127 0030 FB18     		adds	r3, r7, r3
 128 0032 0022     		movs	r2, #0
 129 0034 9B5E     		ldrsh	r3, [r3, r2]
 130 0036 9BB2     		uxth	r3, r3
 131 0038 0133     		adds	r3, r3, #1
 132 003a 9AB2     		uxth	r2, r3
 133 003c 0E23     		movs	r3, #14
 134 003e FB18     		adds	r3, r7, r3
 135 0040 1A80     		strh	r2, [r3]
 136              	.L6:
 113:debug.c       ****     {
 137              		.loc 1 113 0 is_stmt 0 discriminator 1
 138 0042 0E23     		movs	r3, #14
 139 0044 FB18     		adds	r3, r7, r3
 140 0046 0022     		movs	r2, #0
 141 0048 9B5E     		ldrsh	r3, [r3, r2]
 142 004a 7A68     		ldr	r2, [r7, #4]
 143 004c 9288     		ldrh	r2, [r2, #4]
 144 004e 9342     		cmp	r3, r2
 145 0050 DFDB     		blt	.L7
 116:debug.c       ****     }
 117:debug.c       ****     DBG_PRINTF("\r\n");
 146              		.loc 1 117 0 is_stmt 1
 147 0052 054B     		ldr	r3, .L8+4
 148 0054 1800     		movs	r0, r3
 149 0056 FFF7FEFF 		bl	puts
 118:debug.c       **** }
 150              		.loc 1 118 0
 151 005a C046     		nop
 152 005c BD46     		mov	sp, r7
 153 005e 04B0     		add	sp, sp, #16
 154              		@ sp needed
 155 0060 80BD     		pop	{r7, pc}
 156              	.L9:
 157 0062 C046     		.align	2
 158              	.L8:
 159 0064 00000000 		.word	.LC0
 160 0068 08000000 		.word	.LC2
 161              		.cfi_endproc
 162              	.LFE37:
ARM GAS  C:\Users\black\AppData\Local\Temp\cclqIoJC.s 			page 6


 163              		.size	ShowValue, .-ShowValue
 164              		.section	.text.Set32ByPtr,"ax",%progbits
 165              		.align	2
 166              		.global	Set32ByPtr
 167              		.code	16
 168              		.thumb_func
 169              		.type	Set32ByPtr, %function
 170              	Set32ByPtr:
 171              	.LFB38:
 119:debug.c       **** 
 120:debug.c       **** 
 121:debug.c       **** void Set32ByPtr(uint8 ptr[], uint32 value)
 122:debug.c       **** {
 172              		.loc 1 122 0
 173              		.cfi_startproc
 174              		@ args = 0, pretend = 0, frame = 8
 175              		@ frame_needed = 1, uses_anonymous_args = 0
 176 0000 80B5     		push	{r7, lr}
 177              		.cfi_def_cfa_offset 8
 178              		.cfi_offset 7, -8
 179              		.cfi_offset 14, -4
 180 0002 82B0     		sub	sp, sp, #8
 181              		.cfi_def_cfa_offset 16
 182 0004 00AF     		add	r7, sp, #0
 183              		.cfi_def_cfa_register 7
 184 0006 7860     		str	r0, [r7, #4]
 185 0008 3960     		str	r1, [r7]
 123:debug.c       ****     ptr[0u] = (uint8) value;
 186              		.loc 1 123 0
 187 000a 3B68     		ldr	r3, [r7]
 188 000c DAB2     		uxtb	r2, r3
 189 000e 7B68     		ldr	r3, [r7, #4]
 190 0010 1A70     		strb	r2, [r3]
 124:debug.c       ****     ptr[1u] = (uint8) (value >> 8u);    
 191              		.loc 1 124 0
 192 0012 7B68     		ldr	r3, [r7, #4]
 193 0014 0133     		adds	r3, r3, #1
 194 0016 3A68     		ldr	r2, [r7]
 195 0018 120A     		lsrs	r2, r2, #8
 196 001a D2B2     		uxtb	r2, r2
 197 001c 1A70     		strb	r2, [r3]
 125:debug.c       ****     ptr[2u] = (uint8) (value >> 16u);    
 198              		.loc 1 125 0
 199 001e 7B68     		ldr	r3, [r7, #4]
 200 0020 0233     		adds	r3, r3, #2
 201 0022 3A68     		ldr	r2, [r7]
 202 0024 120C     		lsrs	r2, r2, #16
 203 0026 D2B2     		uxtb	r2, r2
 204 0028 1A70     		strb	r2, [r3]
 126:debug.c       ****     ptr[3u] = (uint8) (value >> 24u);
 205              		.loc 1 126 0
 206 002a 7B68     		ldr	r3, [r7, #4]
 207 002c 0333     		adds	r3, r3, #3
 208 002e 3A68     		ldr	r2, [r7]
 209 0030 120E     		lsrs	r2, r2, #24
 210 0032 D2B2     		uxtb	r2, r2
 211 0034 1A70     		strb	r2, [r3]
ARM GAS  C:\Users\black\AppData\Local\Temp\cclqIoJC.s 			page 7


 127:debug.c       **** }
 212              		.loc 1 127 0
 213 0036 C046     		nop
 214 0038 BD46     		mov	sp, r7
 215 003a 02B0     		add	sp, sp, #8
 216              		@ sp needed
 217 003c 80BD     		pop	{r7, pc}
 218              		.cfi_endproc
 219              	.LFE38:
 220              		.size	Set32ByPtr, .-Set32ByPtr
 221 003e C046     		.section	.text.ShowError,"ax",%progbits
 222              		.align	2
 223              		.global	ShowError
 224              		.code	16
 225              		.thumb_func
 226              		.type	ShowError, %function
 227              	ShowError:
 228              	.LFB39:
 128:debug.c       **** 
 129:debug.c       **** 
 130:debug.c       **** /*******************************************************************************
 131:debug.c       **** * Function Name: ShowError()
 132:debug.c       **** ********************************************************************************
 133:debug.c       **** *
 134:debug.c       **** * Summary:
 135:debug.c       **** *   Shows error condition: Turn On all leds - white colour will indicate error.
 136:debug.c       **** *
 137:debug.c       **** *******************************************************************************/
 138:debug.c       **** void ShowError(void)
 139:debug.c       **** {
 229              		.loc 1 139 0
 230              		.cfi_startproc
 231              		@ args = 0, pretend = 0, frame = 0
 232              		@ frame_needed = 1, uses_anonymous_args = 0
 233 0000 80B5     		push	{r7, lr}
 234              		.cfi_def_cfa_offset 8
 235              		.cfi_offset 7, -8
 236              		.cfi_offset 14, -4
 237 0002 00AF     		add	r7, sp, #0
 238              		.cfi_def_cfa_register 7
 140:debug.c       ****     Disconnect_LED_Write(LED_ON);
 239              		.loc 1 140 0
 240 0004 0020     		movs	r0, #0
 241 0006 FFF7FEFF 		bl	Disconnect_LED_Write
 141:debug.c       ****     Advertising_LED_Write(LED_ON);
 242              		.loc 1 141 0
 243 000a 0020     		movs	r0, #0
 244 000c FFF7FEFF 		bl	Advertising_LED_Write
 142:debug.c       ****     CapsLock_LED_Write(LED_ON);
 245              		.loc 1 142 0
 246 0010 0020     		movs	r0, #0
 247 0012 FFF7FEFF 		bl	CapsLock_LED_Write
 143:debug.c       ****     /* Halt CPU in Debug mode */
 144:debug.c       ****     CYASSERT(0u != 0u);
 248              		.loc 1 144 0
 249 0016 0020     		movs	r0, #0
 250 0018 FFF7FEFF 		bl	CyHalt
ARM GAS  C:\Users\black\AppData\Local\Temp\cclqIoJC.s 			page 8


 145:debug.c       **** }
 251              		.loc 1 145 0
 252 001c C046     		nop
 253 001e BD46     		mov	sp, r7
 254              		@ sp needed
 255 0020 80BD     		pop	{r7, pc}
 256              		.cfi_endproc
 257              	.LFE39:
 258              		.size	ShowError, .-ShowError
 259 0022 C046     		.text
 260              	.Letext0:
 261              		.file 2 "Generated_Source\\PSoC4/cytypes.h"
 262              		.file 3 "Generated_Source\\PSoC4/BLE_StackGatt.h"