ARM GAS  C:\Users\black\AppData\Local\Temp\ccWcR8kd.s 			page 1


   1              		.syntax unified
   2              		.cpu cortex-m0
   3              		.fpu softvfp
   4              		.eabi_attribute 20, 1
   5              		.eabi_attribute 21, 1
   6              		.eabi_attribute 23, 3
   7              		.eabi_attribute 24, 1
   8              		.eabi_attribute 25, 1
   9              		.eabi_attribute 26, 1
  10              		.eabi_attribute 30, 6
  11              		.eabi_attribute 34, 0
  12              		.eabi_attribute 18, 4
  13              		.thumb
  14              		.syntax unified
  15              		.file	"hids.c"
  16              		.text
  17              	.Ltext0:
  18              		.cfi_sections	.debug_frame
  19              		.comm	keyboardSimulation,2,2
  20              		.global	protocol
  21              		.data
  22              		.type	protocol, %object
  23              		.size	protocol, 1
  24              	protocol:
  25 0000 01       		.byte	1
  26              		.global	suspend
  27              		.type	suspend, %object
  28              		.size	suspend, 1
  29              	suspend:
  30 0001 01       		.byte	1
  31              		.section	.rodata
  32              		.align	2
  33              	.LC0:
  34 0000 48494453 		.ascii	"HIDS event: %lx, \000"
  34      20657665 
  34      6E743A20 
  34      256C782C 
  34      2000
  35 0012 0000     		.align	2
  36              	.LC3:
  37 0014 4359424C 		.ascii	"CYBLE_EVT_HIDSS_NOTIFICATION_ENABLED: serv=%x, char"
  37      455F4556 
  37      545F4849 
  37      4453535F 
  37      4E4F5449 
  38 0047 3D25780D 		.ascii	"=%x\015\012\000"
  38      0A00
  39 004d 000000   		.align	2
  40              	.LC6:
  41 0050 4359424C 		.ascii	"CYBLE_EVT_HIDSS_NOTIFICATION_DISABLED: serv=%x, cha"
  41      455F4556 
  41      545F4849 
  41      4453535F 
  41      4E4F5449 
  42 0083 723D2578 		.ascii	"r=%x\015\012\000"
  42      0D0A00
  43 008a 0000     		.align	2
ARM GAS  C:\Users\black\AppData\Local\Temp\ccWcR8kd.s 			page 2


  44              	.LC8:
  45 008c 4359424C 		.ascii	"CYBLE_EVT_HIDSS_BOOT_MODE_ENTER \015\000"
  45      455F4556 
  45      545F4849 
  45      4453535F 
  45      424F4F54 
  46 00ae 0000     		.align	2
  47              	.LC11:
  48 00b0 4359424C 		.ascii	"CYBLE_EVT_HIDSS_REPORT_MODE_ENTER \015\000"
  48      455F4556 
  48      545F4849 
  48      4453535F 
  48      5245504F 
  49              		.align	2
  50              	.LC13:
  51 00d4 4359424C 		.ascii	"CYBLE_EVT_HIDSS_SUSPEND \015\000"
  51      455F4556 
  51      545F4849 
  51      4453535F 
  51      53555350 
  52 00ee 0000     		.align	2
  53              	.LC16:
  54 00f0 4359424C 		.ascii	"CYBLE_EVT_HIDSS_EXIT_SUSPEND \015\000"
  54      455F4556 
  54      545F4849 
  54      4453535F 
  54      45584954 
  55 010f 00       		.align	2
  56              	.LC18:
  57 0110 4359424C 		.ascii	"CYBLE_EVT_HIDSS_REPORT_CHAR_WRITE: serv=%x, char=%x"
  57      455F4556 
  57      545F4849 
  57      4453535F 
  57      5245504F 
  58 0143 2C207661 		.ascii	", value=\000"
  58      6C75653D 
  58      00
  59              		.align	2
  60              	.LC20:
  61 014c 4E6F7420 		.ascii	"Not supported event\015\000"
  61      73757070 
  61      6F727465 
  61      64206576 
  61      656E740D 
  62              		.section	.text.HidsCallBack,"ax",%progbits
  63              		.align	2
  64              		.global	HidsCallBack
  65              		.code	16
  66              		.thumb_func
  67              		.type	HidsCallBack, %function
  68              	HidsCallBack:
  69              	.LFB36:
  70              		.file 1 "hids.c"
   1:hids.c        **** /*******************************************************************************
   2:hids.c        **** * File Name: hids.c
   3:hids.c        **** *
   4:hids.c        **** * Version: 1.0
ARM GAS  C:\Users\black\AppData\Local\Temp\ccWcR8kd.s 			page 3


   5:hids.c        **** *
   6:hids.c        **** * Description:
   7:hids.c        **** *  This file contains HIDS callback handler function.
   8:hids.c        **** *
   9:hids.c        **** * Hardware Dependency:
  10:hids.c        **** *  CY8CKIT-042 BLE
  11:hids.c        **** * 
  12:hids.c        **** ********************************************************************************
  13:hids.c        **** * Copyright 2016, Cypress Semiconductor Corporation.  All rights reserved.
  14:hids.c        **** * You may use this file only in accordance with the license, terms, conditions,
  15:hids.c        **** * disclaimers, and limitations in the end user license agreement accompanying
  16:hids.c        **** * the software package with which this file was provided.
  17:hids.c        **** *******************************************************************************/
  18:hids.c        **** 
  19:hids.c        **** #include "common.h"
  20:hids.c        **** #include "hids.h"
  21:hids.c        **** 
  22:hids.c        **** uint16 keyboardSimulation;
  23:hids.c        **** uint8 protocol = CYBLE_HIDS_PROTOCOL_MODE_REPORT;   /* Boot or Report protocol mode */
  24:hids.c        **** uint8 suspend = CYBLE_HIDS_CP_EXIT_SUSPEND;         /* Suspend to enter into deep sleep mode */
  25:hids.c        **** 
  26:hids.c        **** 
  27:hids.c        **** /*******************************************************************************
  28:hids.c        **** * Function Name: HidsCallBack()
  29:hids.c        **** ********************************************************************************
  30:hids.c        **** *
  31:hids.c        **** * Summary:
  32:hids.c        **** *   This is an event callback function to receive service specific events from 
  33:hids.c        **** *   HID Service.
  34:hids.c        **** *
  35:hids.c        **** * Parameters:
  36:hids.c        **** *  event - the event code
  37:hids.c        **** *  *eventParam - the event parameters
  38:hids.c        **** *
  39:hids.c        **** * Return:
  40:hids.c        **** *  None.
  41:hids.c        **** *
  42:hids.c        **** ********************************************************************************/
  43:hids.c        **** void HidsCallBack(uint32 event, void *eventParam)
  44:hids.c        **** {
  71              		.loc 1 44 0
  72              		.cfi_startproc
  73              		@ args = 0, pretend = 0, frame = 16
  74              		@ frame_needed = 1, uses_anonymous_args = 0
  75 0000 80B5     		push	{r7, lr}
  76              		.cfi_def_cfa_offset 8
  77              		.cfi_offset 7, -8
  78              		.cfi_offset 14, -4
  79 0002 84B0     		sub	sp, sp, #16
  80              		.cfi_def_cfa_offset 24
  81 0004 00AF     		add	r7, sp, #0
  82              		.cfi_def_cfa_register 7
  83 0006 7860     		str	r0, [r7, #4]
  84 0008 3960     		str	r1, [r7]
  45:hids.c        ****     CYBLE_HIDS_CHAR_VALUE_T *locEventParam = (CYBLE_HIDS_CHAR_VALUE_T *)eventParam;
  85              		.loc 1 45 0
  86 000a 3B68     		ldr	r3, [r7]
ARM GAS  C:\Users\black\AppData\Local\Temp\ccWcR8kd.s 			page 4


  87 000c FB60     		str	r3, [r7, #12]
  46:hids.c        **** 
  47:hids.c        ****     DBG_PRINTF("HIDS event: %lx, ", event);
  88              		.loc 1 47 0
  89 000e 7A68     		ldr	r2, [r7, #4]
  90 0010 4D4B     		ldr	r3, .L26
  91 0012 1100     		movs	r1, r2
  92 0014 1800     		movs	r0, r3
  93 0016 FFF7FEFF 		bl	printf
  48:hids.c        **** 
  49:hids.c        ****     switch(event)
  94              		.loc 1 49 0
  95 001a 7B68     		ldr	r3, [r7, #4]
  96 001c 953B     		subs	r3, r3, #149
  97 001e FF3B     		subs	r3, r3, #255
  98 0020 0B2B     		cmp	r3, #11
  99 0022 00D9     		bls	.LCB25
 100 0024 81E0     		b	.L2	@long jump
 101              	.LCB25:
 102 0026 9A00     		lsls	r2, r3, #2
 103 0028 484B     		ldr	r3, .L26+4
 104 002a D318     		adds	r3, r2, r3
 105 002c 1B68     		ldr	r3, [r3]
 106 002e 9F46     		mov	pc, r3
 107              		.section	.rodata
 108 0161 000000   		.align	2
 109              	.L4:
 110 0164 30000000 		.word	.L3
 111 0168 56000000 		.word	.L5
 112 016c 7A000000 		.word	.L6
 113 0170 8A000000 		.word	.L7
 114 0174 9A000000 		.word	.L8
 115 0178 AE000000 		.word	.L9
 116 017c C2000000 		.word	.L10
 117 0180 34010000 		.word	.L23
 118 0184 34010000 		.word	.L23
 119 0188 34010000 		.word	.L23
 120 018c 34010000 		.word	.L23
 121 0190 34010000 		.word	.L23
 122              		.section	.text.HidsCallBack
 123              	.L3:
  50:hids.c        ****     {
  51:hids.c        ****         case CYBLE_EVT_HIDSS_NOTIFICATION_ENABLED:
  52:hids.c        ****             DBG_PRINTF("CYBLE_EVT_HIDSS_NOTIFICATION_ENABLED: serv=%x, char=%x\r\n", 
 124              		.loc 1 52 0
 125 0030 FB68     		ldr	r3, [r7, #12]
 126 0032 9B78     		ldrb	r3, [r3, #2]
 127 0034 1900     		movs	r1, r3
 128 0036 FB68     		ldr	r3, [r7, #12]
 129 0038 DB78     		ldrb	r3, [r3, #3]
 130 003a 1A00     		movs	r2, r3
 131 003c 444B     		ldr	r3, .L26+8
 132 003e 1800     		movs	r0, r3
 133 0040 FFF7FEFF 		bl	printf
  53:hids.c        ****                 locEventParam->serviceIndex,
  54:hids.c        ****                 locEventParam->charIndex);
  55:hids.c        ****             if(CYBLE_HUMAN_INTERFACE_DEVICE_SERVICE_INDEX == locEventParam->serviceIndex)
ARM GAS  C:\Users\black\AppData\Local\Temp\ccWcR8kd.s 			page 5


 134              		.loc 1 55 0
 135 0044 FB68     		ldr	r3, [r7, #12]
 136 0046 9B78     		ldrb	r3, [r3, #2]
 137 0048 002B     		cmp	r3, #0
 138 004a 00D0     		beq	.LCB49
 139 004c 74E0     		b	.L24	@long jump
 140              	.LCB49:
  56:hids.c        ****             {
  57:hids.c        ****                 keyboardSimulation = ENABLED;
 141              		.loc 1 57 0
 142 004e 414B     		ldr	r3, .L26+12
 143 0050 0122     		movs	r2, #1
 144 0052 1A80     		strh	r2, [r3]
  58:hids.c        ****             }
  59:hids.c        ****             break;
 145              		.loc 1 59 0
 146 0054 70E0     		b	.L24
 147              	.L5:
  60:hids.c        ****         case CYBLE_EVT_HIDSS_NOTIFICATION_DISABLED:
  61:hids.c        ****             DBG_PRINTF("CYBLE_EVT_HIDSS_NOTIFICATION_DISABLED: serv=%x, char=%x\r\n", 
 148              		.loc 1 61 0
 149 0056 FB68     		ldr	r3, [r7, #12]
 150 0058 9B78     		ldrb	r3, [r3, #2]
 151 005a 1900     		movs	r1, r3
 152 005c FB68     		ldr	r3, [r7, #12]
 153 005e DB78     		ldrb	r3, [r3, #3]
 154 0060 1A00     		movs	r2, r3
 155 0062 3D4B     		ldr	r3, .L26+16
 156 0064 1800     		movs	r0, r3
 157 0066 FFF7FEFF 		bl	printf
  62:hids.c        ****                 locEventParam->serviceIndex,
  63:hids.c        ****                 locEventParam->charIndex);
  64:hids.c        ****             if(CYBLE_HUMAN_INTERFACE_DEVICE_SERVICE_INDEX == locEventParam->serviceIndex)
 158              		.loc 1 64 0
 159 006a FB68     		ldr	r3, [r7, #12]
 160 006c 9B78     		ldrb	r3, [r3, #2]
 161 006e 002B     		cmp	r3, #0
 162 0070 64D1     		bne	.L25
  65:hids.c        ****             {
  66:hids.c        ****                 keyboardSimulation = DISABLED;
 163              		.loc 1 66 0
 164 0072 384B     		ldr	r3, .L26+12
 165 0074 0022     		movs	r2, #0
 166 0076 1A80     		strh	r2, [r3]
  67:hids.c        ****             }
  68:hids.c        ****             break;
 167              		.loc 1 68 0
 168 0078 60E0     		b	.L25
 169              	.L6:
  69:hids.c        ****         case CYBLE_EVT_HIDSS_BOOT_MODE_ENTER:
  70:hids.c        ****             DBG_PRINTF("CYBLE_EVT_HIDSS_BOOT_MODE_ENTER \r\n");
 170              		.loc 1 70 0
 171 007a 384B     		ldr	r3, .L26+20
 172 007c 1800     		movs	r0, r3
 173 007e FFF7FEFF 		bl	puts
  71:hids.c        ****             protocol = CYBLE_HIDS_PROTOCOL_MODE_BOOT;
 174              		.loc 1 71 0
ARM GAS  C:\Users\black\AppData\Local\Temp\ccWcR8kd.s 			page 6


 175 0082 374B     		ldr	r3, .L26+24
 176 0084 0022     		movs	r2, #0
 177 0086 1A70     		strb	r2, [r3]
  72:hids.c        ****             break;
 178              		.loc 1 72 0
 179 0088 59E0     		b	.L17
 180              	.L7:
  73:hids.c        ****         case CYBLE_EVT_HIDSS_REPORT_MODE_ENTER:
  74:hids.c        ****             DBG_PRINTF("CYBLE_EVT_HIDSS_REPORT_MODE_ENTER \r\n");
 181              		.loc 1 74 0
 182 008a 364B     		ldr	r3, .L26+28
 183 008c 1800     		movs	r0, r3
 184 008e FFF7FEFF 		bl	puts
  75:hids.c        ****             protocol = CYBLE_HIDS_PROTOCOL_MODE_REPORT;
 185              		.loc 1 75 0
 186 0092 334B     		ldr	r3, .L26+24
 187 0094 0122     		movs	r2, #1
 188 0096 1A70     		strb	r2, [r3]
  76:hids.c        ****             break;
 189              		.loc 1 76 0
 190 0098 51E0     		b	.L17
 191              	.L8:
  77:hids.c        ****         case CYBLE_EVT_HIDSS_SUSPEND:
  78:hids.c        ****             DBG_PRINTF("CYBLE_EVT_HIDSS_SUSPEND \r\n");
 192              		.loc 1 78 0
 193 009a 334B     		ldr	r3, .L26+32
 194 009c 1800     		movs	r0, r3
 195 009e FFF7FEFF 		bl	puts
  79:hids.c        ****             suspend = CYBLE_HIDS_CP_SUSPEND;
 196              		.loc 1 79 0
 197 00a2 324B     		ldr	r3, .L26+36
 198 00a4 0022     		movs	r2, #0
 199 00a6 1A70     		strb	r2, [r3]
  80:hids.c        ****         #if (DEBUG_UART_ENABLED == ENABLED)
  81:hids.c        ****             /* Reduce power consumption, power down logic that is not required to wake up the syste
  82:hids.c        ****             UART_DEB_Stop();
 200              		.loc 1 82 0
 201 00a8 FFF7FEFF 		bl	UART_DEB_Stop
  83:hids.c        ****         #endif /* (DEBUG_UART_ENABLED == ENABLED) */
  84:hids.c        ****             break;
 202              		.loc 1 84 0
 203 00ac 47E0     		b	.L17
 204              	.L9:
  85:hids.c        ****         case CYBLE_EVT_HIDSS_EXIT_SUSPEND:
  86:hids.c        ****         #if (DEBUG_UART_ENABLED == ENABLED)    
  87:hids.c        ****             /* Power up all circuitry previously shut down */
  88:hids.c        ****             UART_DEB_Start();
 205              		.loc 1 88 0
 206 00ae FFF7FEFF 		bl	UART_DEB_Start
  89:hids.c        ****         #endif /* (DEBUG_UART_ENABLED == ENABLED) */
  90:hids.c        ****             DBG_PRINTF("CYBLE_EVT_HIDSS_EXIT_SUSPEND \r\n");
 207              		.loc 1 90 0
 208 00b2 2F4B     		ldr	r3, .L26+40
 209 00b4 1800     		movs	r0, r3
 210 00b6 FFF7FEFF 		bl	puts
  91:hids.c        ****             suspend = CYBLE_HIDS_CP_EXIT_SUSPEND;
 211              		.loc 1 91 0
ARM GAS  C:\Users\black\AppData\Local\Temp\ccWcR8kd.s 			page 7


 212 00ba 2C4B     		ldr	r3, .L26+36
 213 00bc 0122     		movs	r2, #1
 214 00be 1A70     		strb	r2, [r3]
  92:hids.c        ****             break;
 215              		.loc 1 92 0
 216 00c0 3DE0     		b	.L17
 217              	.L10:
  93:hids.c        ****         case CYBLE_EVT_HIDSS_REPORT_CHAR_WRITE:
  94:hids.c        ****             if(CYBLE_HUMAN_INTERFACE_DEVICE_SERVICE_INDEX == locEventParam->serviceIndex)
 218              		.loc 1 94 0
 219 00c2 FB68     		ldr	r3, [r7, #12]
 220 00c4 9B78     		ldrb	r3, [r3, #2]
 221 00c6 002B     		cmp	r3, #0
 222 00c8 1FD1     		bne	.L19
  95:hids.c        ****             {
  96:hids.c        ****                 /* Write request to Keyboard Output Report characteristic. 
  97:hids.c        ****                 *  Handle Boot and Report protocol. 
  98:hids.c        ****                 */
  99:hids.c        ****                 if( ((CYBLE_HIDS_PROTOCOL_MODE_REPORT == protocol) && 
 223              		.loc 1 99 0
 224 00ca 254B     		ldr	r3, .L26+24
 225 00cc 1B78     		ldrb	r3, [r3]
 226 00ce 012B     		cmp	r3, #1
 227 00d0 03D1     		bne	.L20
 100:hids.c        ****                      (CYBLE_HUMAN_INTERFACE_DEVICE_REPORT_OUT == locEventParam->charIndex)) ||
 228              		.loc 1 100 0 discriminator 1
 229 00d2 FB68     		ldr	r3, [r7, #12]
 230 00d4 DB78     		ldrb	r3, [r3, #3]
  99:hids.c        ****                      (CYBLE_HUMAN_INTERFACE_DEVICE_REPORT_OUT == locEventParam->charIndex)) ||
 231              		.loc 1 99 0 discriminator 1
 232 00d6 082B     		cmp	r3, #8
 233 00d8 07D0     		beq	.L21
 234              	.L20:
 101:hids.c        ****                     ((CYBLE_HIDS_PROTOCOL_MODE_BOOT == protocol) && 
 235              		.loc 1 101 0
 236 00da 214B     		ldr	r3, .L26+24
 237 00dc 1B78     		ldrb	r3, [r3]
 100:hids.c        ****                      (CYBLE_HUMAN_INTERFACE_DEVICE_REPORT_OUT == locEventParam->charIndex)) ||
 238              		.loc 1 100 0
 239 00de 002B     		cmp	r3, #0
 240 00e0 13D1     		bne	.L19
 102:hids.c        ****                      (CYBLE_HIDS_BOOT_KYBRD_OUT_REP == locEventParam->charIndex)) )
 241              		.loc 1 102 0
 242 00e2 FB68     		ldr	r3, [r7, #12]
 243 00e4 DB78     		ldrb	r3, [r3, #3]
 101:hids.c        ****                     ((CYBLE_HIDS_PROTOCOL_MODE_BOOT == protocol) && 
 244              		.loc 1 101 0
 245 00e6 052B     		cmp	r3, #5
 246 00e8 0FD1     		bne	.L19
 247              	.L21:
 103:hids.c        ****                 {
 104:hids.c        ****                     if( (CAPS_LOCK_LED & locEventParam->value->val[0u]) != 0u)
 248              		.loc 1 104 0
 249 00ea FB68     		ldr	r3, [r7, #12]
 250 00ec 5B68     		ldr	r3, [r3, #4]
 251 00ee 1B68     		ldr	r3, [r3]
 252 00f0 1B78     		ldrb	r3, [r3]
ARM GAS  C:\Users\black\AppData\Local\Temp\ccWcR8kd.s 			page 8


 253 00f2 0222     		movs	r2, #2
 254 00f4 1340     		ands	r3, r2
 255 00f6 DBB2     		uxtb	r3, r3
 256 00f8 002B     		cmp	r3, #0
 257 00fa 03D0     		beq	.L22
 105:hids.c        ****                     {
 106:hids.c        ****                         CapsLock_LED_Write(LED_ON);
 258              		.loc 1 106 0
 259 00fc 0020     		movs	r0, #0
 260 00fe FFF7FEFF 		bl	CapsLock_LED_Write
 261 0102 02E0     		b	.L19
 262              	.L22:
 107:hids.c        ****                     }
 108:hids.c        ****                     else
 109:hids.c        ****                     {
 110:hids.c        ****                         CapsLock_LED_Write(LED_OFF);
 263              		.loc 1 110 0
 264 0104 0120     		movs	r0, #1
 265 0106 FFF7FEFF 		bl	CapsLock_LED_Write
 266              	.L19:
 111:hids.c        ****                     }
 112:hids.c        ****                 }
 113:hids.c        ****             }
 114:hids.c        ****             DBG_PRINTF("CYBLE_EVT_HIDSS_REPORT_CHAR_WRITE: serv=%x, char=%x, value=", 
 267              		.loc 1 114 0
 268 010a FB68     		ldr	r3, [r7, #12]
 269 010c 9B78     		ldrb	r3, [r3, #2]
 270 010e 1900     		movs	r1, r3
 271 0110 FB68     		ldr	r3, [r7, #12]
 272 0112 DB78     		ldrb	r3, [r3, #3]
 273 0114 1A00     		movs	r2, r3
 274 0116 174B     		ldr	r3, .L26+44
 275 0118 1800     		movs	r0, r3
 276 011a FFF7FEFF 		bl	printf
 115:hids.c        ****                 locEventParam->serviceIndex,
 116:hids.c        ****                 locEventParam->charIndex);
 117:hids.c        ****                 ShowValue(locEventParam->value);
 277              		.loc 1 117 0
 278 011e FB68     		ldr	r3, [r7, #12]
 279 0120 5B68     		ldr	r3, [r3, #4]
 280 0122 1800     		movs	r0, r3
 281 0124 FFF7FEFF 		bl	ShowValue
 118:hids.c        ****             break;
 282              		.loc 1 118 0
 283 0128 09E0     		b	.L17
 284              	.L2:
 119:hids.c        ****         case CYBLE_EVT_HIDSC_NOTIFICATION:
 120:hids.c        ****             break;
 121:hids.c        ****         case CYBLE_EVT_HIDSC_READ_CHAR_RESPONSE:
 122:hids.c        ****             break;
 123:hids.c        ****         case CYBLE_EVT_HIDSC_WRITE_CHAR_RESPONSE:
 124:hids.c        ****             break;
 125:hids.c        ****         case CYBLE_EVT_HIDSC_READ_DESCR_RESPONSE:
 126:hids.c        ****             break;
 127:hids.c        ****         case CYBLE_EVT_HIDSC_WRITE_DESCR_RESPONSE:           
 128:hids.c        ****             break;
 129:hids.c        **** 		default:
ARM GAS  C:\Users\black\AppData\Local\Temp\ccWcR8kd.s 			page 9


 130:hids.c        ****             DBG_PRINTF("Not supported event\r\n");
 285              		.loc 1 130 0
 286 012a 134B     		ldr	r3, .L26+48
 287 012c 1800     		movs	r0, r3
 288 012e FFF7FEFF 		bl	puts
 131:hids.c        **** 			break;
 289              		.loc 1 131 0
 290 0132 04E0     		b	.L17
 291              	.L23:
 128:hids.c        **** 		default:
 292              		.loc 1 128 0
 293 0134 C046     		nop
 294 0136 02E0     		b	.L17
 295              	.L24:
  59:hids.c        ****         case CYBLE_EVT_HIDSS_NOTIFICATION_DISABLED:
 296              		.loc 1 59 0
 297 0138 C046     		nop
 298 013a 00E0     		b	.L17
 299              	.L25:
  68:hids.c        ****         case CYBLE_EVT_HIDSS_BOOT_MODE_ENTER:
 300              		.loc 1 68 0
 301 013c C046     		nop
 302              	.L17:
 132:hids.c        ****     }
 133:hids.c        **** }
 303              		.loc 1 133 0
 304 013e C046     		nop
 305 0140 BD46     		mov	sp, r7
 306 0142 04B0     		add	sp, sp, #16
 307              		@ sp needed
 308 0144 80BD     		pop	{r7, pc}
 309              	.L27:
 310 0146 C046     		.align	2
 311              	.L26:
 312 0148 00000000 		.word	.LC0
 313 014c 64010000 		.word	.L4
 314 0150 14000000 		.word	.LC3
 315 0154 00000000 		.word	keyboardSimulation
 316 0158 50000000 		.word	.LC6
 317 015c 8C000000 		.word	.LC8
 318 0160 00000000 		.word	protocol
 319 0164 B0000000 		.word	.LC11
 320 0168 D4000000 		.word	.LC13
 321 016c 00000000 		.word	suspend
 322 0170 F0000000 		.word	.LC16
 323 0174 10010000 		.word	.LC18
 324 0178 4C010000 		.word	.LC20
 325              		.cfi_endproc
 326              	.LFE36:
 327              		.size	HidsCallBack, .-HidsCallBack
 328              		.section	.text.HidsInit,"ax",%progbits
 329              		.align	2
 330              		.global	HidsInit
 331              		.code	16
 332              		.thumb_func
 333              		.type	HidsInit, %function
 334              	HidsInit:
ARM GAS  C:\Users\black\AppData\Local\Temp\ccWcR8kd.s 			page 10


 335              	.LFB37:
 134:hids.c        **** 
 135:hids.c        **** 
 136:hids.c        **** /*******************************************************************************
 137:hids.c        **** * Function Name: HidsInit()
 138:hids.c        **** ********************************************************************************
 139:hids.c        **** *
 140:hids.c        **** * Summary:
 141:hids.c        **** *   Initializes the HID service.
 142:hids.c        **** *
 143:hids.c        **** *******************************************************************************/
 144:hids.c        **** void HidsInit(void)
 145:hids.c        **** {
 336              		.loc 1 145 0
 337              		.cfi_startproc
 338              		@ args = 0, pretend = 0, frame = 8
 339              		@ frame_needed = 1, uses_anonymous_args = 0
 340 0000 90B5     		push	{r4, r7, lr}
 341              		.cfi_def_cfa_offset 12
 342              		.cfi_offset 4, -12
 343              		.cfi_offset 7, -8
 344              		.cfi_offset 14, -4
 345 0002 85B0     		sub	sp, sp, #20
 346              		.cfi_def_cfa_offset 32
 347 0004 02AF     		add	r7, sp, #8
 348              		.cfi_def_cfa 7, 24
 146:hids.c        ****     CYBLE_API_RESULT_T apiResult;
 147:hids.c        ****     uint16 cccdValue;
 148:hids.c        ****     
 149:hids.c        ****     /* Register service specific callback function */
 150:hids.c        ****     CyBle_HidsRegisterAttrCallback(HidsCallBack);
 349              		.loc 1 150 0
 350 0006 1F4B     		ldr	r3, .L32
 351 0008 1800     		movs	r0, r3
 352 000a FFF7FEFF 		bl	CyBle_HidsRegisterAttrCallback
 151:hids.c        ****     keyboardSimulation = DISABLED;
 353              		.loc 1 151 0
 354 000e 1E4B     		ldr	r3, .L32+4
 355 0010 0022     		movs	r2, #0
 356 0012 1A80     		strh	r2, [r3]
 152:hids.c        ****     /* Read CCCD configurations from flash */
 153:hids.c        ****     apiResult = CyBle_HidssGetCharacteristicDescriptor(CYBLE_HUMAN_INTERFACE_DEVICE_SERVICE_INDEX, 
 357              		.loc 1 153 0
 358 0014 BC1D     		adds	r4, r7, #6
 359 0016 3B1D     		adds	r3, r7, #4
 360 0018 0093     		str	r3, [sp]
 361 001a 0223     		movs	r3, #2
 362 001c 0022     		movs	r2, #0
 363 001e 0721     		movs	r1, #7
 364 0020 0020     		movs	r0, #0
 365 0022 FFF7FEFF 		bl	CyBle_HidssGetCharacteristicDescriptor
 366 0026 0300     		movs	r3, r0
 367 0028 2380     		strh	r3, [r4]
 154:hids.c        ****         CYBLE_HUMAN_INTERFACE_DEVICE_REPORT_IN, CYBLE_HIDS_REPORT_CCCD, CYBLE_CCCD_LEN, (uint8 *)&c
 155:hids.c        ****     if((apiResult == CYBLE_ERROR_OK) && (cccdValue != 0u))
 368              		.loc 1 155 0
 369 002a BB1D     		adds	r3, r7, #6
ARM GAS  C:\Users\black\AppData\Local\Temp\ccWcR8kd.s 			page 11


 370 002c 1B88     		ldrh	r3, [r3]
 371 002e 002B     		cmp	r3, #0
 372 0030 0AD1     		bne	.L29
 373              		.loc 1 155 0 is_stmt 0 discriminator 1
 374 0032 3B1D     		adds	r3, r7, #4
 375 0034 1B88     		ldrh	r3, [r3]
 376 0036 002B     		cmp	r3, #0
 377 0038 06D0     		beq	.L29
 156:hids.c        ****     {
 157:hids.c        ****         keyboardSimulation |= ENABLED;
 378              		.loc 1 157 0 is_stmt 1
 379 003a 134B     		ldr	r3, .L32+4
 380 003c 1B88     		ldrh	r3, [r3]
 381 003e 0122     		movs	r2, #1
 382 0040 1343     		orrs	r3, r2
 383 0042 9AB2     		uxth	r2, r3
 384 0044 104B     		ldr	r3, .L32+4
 385 0046 1A80     		strh	r2, [r3]
 386              	.L29:
 158:hids.c        ****     }
 159:hids.c        ****     apiResult = CyBle_HidssGetCharacteristicDescriptor(CYBLE_HUMAN_INTERFACE_DEVICE_SERVICE_INDEX, 
 387              		.loc 1 159 0
 388 0048 BC1D     		adds	r4, r7, #6
 389 004a 3B1D     		adds	r3, r7, #4
 390 004c 0093     		str	r3, [sp]
 391 004e 0223     		movs	r3, #2
 392 0050 0022     		movs	r2, #0
 393 0052 0421     		movs	r1, #4
 394 0054 0020     		movs	r0, #0
 395 0056 FFF7FEFF 		bl	CyBle_HidssGetCharacteristicDescriptor
 396 005a 0300     		movs	r3, r0
 397 005c 2380     		strh	r3, [r4]
 160:hids.c        ****         CYBLE_HIDS_BOOT_KYBRD_IN_REP, CYBLE_HIDS_REPORT_CCCD, CYBLE_CCCD_LEN, (uint8 *)&cccdValue);
 161:hids.c        ****     if((apiResult == CYBLE_ERROR_OK) && (cccdValue != 0u))
 398              		.loc 1 161 0
 399 005e BB1D     		adds	r3, r7, #6
 400 0060 1B88     		ldrh	r3, [r3]
 401 0062 002B     		cmp	r3, #0
 402 0064 0AD1     		bne	.L31
 403              		.loc 1 161 0 is_stmt 0 discriminator 1
 404 0066 3B1D     		adds	r3, r7, #4
 405 0068 1B88     		ldrh	r3, [r3]
 406 006a 002B     		cmp	r3, #0
 407 006c 06D0     		beq	.L31
 162:hids.c        ****     {
 163:hids.c        ****         keyboardSimulation |= ENABLED;
 408              		.loc 1 163 0 is_stmt 1
 409 006e 064B     		ldr	r3, .L32+4
 410 0070 1B88     		ldrh	r3, [r3]
 411 0072 0122     		movs	r2, #1
 412 0074 1343     		orrs	r3, r2
 413 0076 9AB2     		uxth	r2, r3
 414 0078 034B     		ldr	r3, .L32+4
 415 007a 1A80     		strh	r2, [r3]
 416              	.L31:
 164:hids.c        ****     }
 165:hids.c        **** }
ARM GAS  C:\Users\black\AppData\Local\Temp\ccWcR8kd.s 			page 12


 417              		.loc 1 165 0
 418 007c C046     		nop
 419 007e BD46     		mov	sp, r7
 420 0080 03B0     		add	sp, sp, #12
 421              		@ sp needed
 422 0082 90BD     		pop	{r4, r7, pc}
 423              	.L33:
 424              		.align	2
 425              	.L32:
 426 0084 00000000 		.word	HidsCallBack
 427 0088 00000000 		.word	keyboardSimulation
 428              		.cfi_endproc
 429              	.LFE37:
 430              		.size	HidsInit, .-HidsInit
 431              		.section	.rodata
 432              		.align	2
 433              	.LC30:
 434 0194 48494420 		.ascii	"HID notification: \000"
 434      6E6F7469 
 434      66696361 
 434      74696F6E 
 434      3A2000
 435 01a7 00       		.align	2
 436              	.LC32:
 437 01a8 25322E32 		.ascii	"%2.2x,\000"
 437      782C00
 438 01af 00       		.align	2
 439              	.LC34:
 440 01b0 0D00     		.ascii	"\015\000"
 441 01b2 0000     		.align	2
 442              	.LC37:
 443 01b4 48494420 		.ascii	"HID notification API Error: %x \015\012\000"
 443      6E6F7469 
 443      66696361 
 443      74696F6E 
 443      20415049 
 444              		.section	.text.SimulateKeyboard,"ax",%progbits
 445              		.align	2
 446              		.global	SimulateKeyboard
 447              		.code	16
 448              		.thumb_func
 449              		.type	SimulateKeyboard, %function
 450              	SimulateKeyboard:
 451              	.LFB38:
 166:hids.c        **** 
 167:hids.c        ****     
 168:hids.c        **** /*******************************************************************************
 169:hids.c        **** * Function Name: SimulateKeyboard()
 170:hids.c        **** ********************************************************************************
 171:hids.c        **** *
 172:hids.c        **** * Summary:
 173:hids.c        **** *   The custom function to simulate CapsLock key pressing
 174:hids.c        **** *
 175:hids.c        **** *******************************************************************************/
 176:hids.c        **** void SimulateKeyboard(void)
 177:hids.c        **** {
 452              		.loc 1 177 0
ARM GAS  C:\Users\black\AppData\Local\Temp\ccWcR8kd.s 			page 13


 453              		.cfi_startproc
 454              		@ args = 0, pretend = 0, frame = 8
 455              		@ frame_needed = 1, uses_anonymous_args = 0
 456 0000 90B5     		push	{r4, r7, lr}
 457              		.cfi_def_cfa_offset 12
 458              		.cfi_offset 4, -12
 459              		.cfi_offset 7, -8
 460              		.cfi_offset 14, -4
 461 0002 85B0     		sub	sp, sp, #20
 462              		.cfi_def_cfa_offset 32
 463 0004 02AF     		add	r7, sp, #8
 464              		.cfi_def_cfa 7, 24
 178:hids.c        ****     static uint8 keyboard_data[KEYBOARD_DATA_SIZE]={0,0,0,0,0,0,0,0};
 179:hids.c        ****     CYBLE_API_RESULT_T apiResult;
 180:hids.c        ****     static uint32 keyboardTimer = KEYBOARD_TIMEOUT;
 181:hids.c        ****     static uint8 simKey; 
 182:hids.c        ****     static uint8 capsLockPress = 0u;
 183:hids.c        ****     uint8 i;
 184:hids.c        ****     
 185:hids.c        ****     /* Scan SW2 key each connection interval */
 186:hids.c        ****     if(0u == SW2_Read())
 465              		.loc 1 186 0
 466 0006 FFF7FEFF 		bl	SW2_Read
 467 000a 031E     		subs	r3, r0, #0
 468 000c 1BD1     		bne	.L35
 187:hids.c        ****     {
 188:hids.c        ****         if(capsLockPress < KEYBOARD_JITTER_SIZE)
 469              		.loc 1 188 0
 470 000e 774B     		ldr	r3, .L47
 471 0010 1B78     		ldrb	r3, [r3]
 472 0012 002B     		cmp	r3, #0
 473 0014 06D1     		bne	.L36
 189:hids.c        ****         {
 190:hids.c        ****             capsLockPress++;
 474              		.loc 1 190 0
 475 0016 754B     		ldr	r3, .L47
 476 0018 1B78     		ldrb	r3, [r3]
 477 001a 0133     		adds	r3, r3, #1
 478 001c DAB2     		uxtb	r2, r3
 479 001e 734B     		ldr	r3, .L47
 480 0020 1A70     		strb	r2, [r3]
 481 0022 13E0     		b	.L37
 482              	.L36:
 191:hids.c        ****         } 
 192:hids.c        ****         else if(capsLockPress == KEYBOARD_JITTER_SIZE)
 483              		.loc 1 192 0
 484 0024 714B     		ldr	r3, .L47
 485 0026 1B78     		ldrb	r3, [r3]
 486 0028 012B     		cmp	r3, #1
 487 002a 0FD1     		bne	.L37
 193:hids.c        ****         {
 194:hids.c        ****             keyboard_data[2u] = CAPS_LOCK;              /* Set up keyboard data */
 488              		.loc 1 194 0
 489 002c 704B     		ldr	r3, .L47+4
 490 002e 3922     		movs	r2, #57
 491 0030 9A70     		strb	r2, [r3, #2]
 195:hids.c        ****             keyboardTimer = 1u;                         /* Clear Simulation timer to send data */
ARM GAS  C:\Users\black\AppData\Local\Temp\ccWcR8kd.s 			page 14


 492              		.loc 1 195 0
 493 0032 704B     		ldr	r3, .L47+8
 494 0034 0122     		movs	r2, #1
 495 0036 1A60     		str	r2, [r3]
 196:hids.c        ****             capsLockPress++;
 496              		.loc 1 196 0
 497 0038 6C4B     		ldr	r3, .L47
 498 003a 1B78     		ldrb	r3, [r3]
 499 003c 0133     		adds	r3, r3, #1
 500 003e DAB2     		uxtb	r2, r3
 501 0040 6A4B     		ldr	r3, .L47
 502 0042 1A70     		strb	r2, [r3]
 503 0044 02E0     		b	.L37
 504              	.L35:
 197:hids.c        ****         }
 198:hids.c        ****         else    /* Ignore long key pressing */
 199:hids.c        ****         {
 200:hids.c        ****         }
 201:hids.c        ****     }
 202:hids.c        ****     else
 203:hids.c        ****     {
 204:hids.c        ****         capsLockPress = 0u;
 505              		.loc 1 204 0
 506 0046 694B     		ldr	r3, .L47
 507 0048 0022     		movs	r2, #0
 508 004a 1A70     		strb	r2, [r3]
 509              	.L37:
 205:hids.c        ****     }
 206:hids.c        ****     if((CyBle_GattGetBusyStatus() == CYBLE_STACK_STATE_FREE) && (--keyboardTimer == 0u))
 510              		.loc 1 206 0
 511 004c 6A4B     		ldr	r3, .L47+12
 512 004e 1B78     		ldrb	r3, [r3]
 513 0050 DBB2     		uxtb	r3, r3
 514 0052 002B     		cmp	r3, #0
 515 0054 00D0     		beq	.LCB376
 516 0056 C4E0     		b	.L46	@long jump
 517              	.LCB376:
 518              		.loc 1 206 0 is_stmt 0 discriminator 1
 519 0058 664B     		ldr	r3, .L47+8
 520 005a 1B68     		ldr	r3, [r3]
 521 005c 5A1E     		subs	r2, r3, #1
 522 005e 654B     		ldr	r3, .L47+8
 523 0060 1A60     		str	r2, [r3]
 524 0062 644B     		ldr	r3, .L47+8
 525 0064 1B68     		ldr	r3, [r3]
 526 0066 002B     		cmp	r3, #0
 527 0068 00D0     		beq	.LCB385
 528 006a BAE0     		b	.L46	@long jump
 529              	.LCB385:
 207:hids.c        ****     {
 208:hids.c        ****         keyboardTimer = KEYBOARD_TIMEOUT;
 530              		.loc 1 208 0 is_stmt 1
 531 006c 614B     		ldr	r3, .L47+8
 532 006e 0A22     		movs	r2, #10
 533 0070 1A60     		str	r2, [r3]
 209:hids.c        ****     
 210:hids.c        ****         simKey++;
ARM GAS  C:\Users\black\AppData\Local\Temp\ccWcR8kd.s 			page 15


 534              		.loc 1 210 0
 535 0072 624B     		ldr	r3, .L47+16
 536 0074 1B78     		ldrb	r3, [r3]
 537 0076 0133     		adds	r3, r3, #1
 538 0078 DAB2     		uxtb	r2, r3
 539 007a 604B     		ldr	r3, .L47+16
 540 007c 1A70     		strb	r2, [r3]
 211:hids.c        ****         if(simKey > SIM_KEY_MAX)
 541              		.loc 1 211 0
 542 007e 5F4B     		ldr	r3, .L47+16
 543 0080 1B78     		ldrb	r3, [r3]
 544 0082 282B     		cmp	r3, #40
 545 0084 02D9     		bls	.L39
 212:hids.c        ****         {
 213:hids.c        ****             simKey = SIM_KEY_MIN; 
 546              		.loc 1 213 0
 547 0086 5D4B     		ldr	r3, .L47+16
 548 0088 0422     		movs	r2, #4
 549 008a 1A70     		strb	r2, [r3]
 550              	.L39:
 214:hids.c        ****         }
 215:hids.c        ****         keyboard_data[3u] = simKey;              
 551              		.loc 1 215 0
 552 008c 5B4B     		ldr	r3, .L47+16
 553 008e 1A78     		ldrb	r2, [r3]
 554 0090 574B     		ldr	r3, .L47+4
 555 0092 DA70     		strb	r2, [r3, #3]
 216:hids.c        ****         
 217:hids.c        ****         apiResult = CyBle_HidssGetCharacteristicValue(CYBLE_HUMAN_INTERFACE_DEVICE_SERVICE_INDEX, 
 556              		.loc 1 217 0
 557 0094 BC1D     		adds	r4, r7, #6
 558 0096 5A4B     		ldr	r3, .L47+20
 559 0098 0122     		movs	r2, #1
 560 009a 0021     		movs	r1, #0
 561 009c 0020     		movs	r0, #0
 562 009e FFF7FEFF 		bl	CyBle_HidssGetCharacteristicValue
 563 00a2 0300     		movs	r3, r0
 564 00a4 2380     		strh	r3, [r4]
 218:hids.c        ****             CYBLE_HIDS_PROTOCOL_MODE, sizeof(protocol), &protocol);
 219:hids.c        ****         if(apiResult == CYBLE_ERROR_OK)
 565              		.loc 1 219 0
 566 00a6 BB1D     		adds	r3, r7, #6
 567 00a8 1B88     		ldrh	r3, [r3]
 568 00aa 002B     		cmp	r3, #0
 569 00ac 00D0     		beq	.LCB419
 570 00ae 98E0     		b	.L46	@long jump
 571              	.LCB419:
 220:hids.c        ****         {
 221:hids.c        ****             DBG_PRINTF("HID notification: ");
 572              		.loc 1 221 0
 573 00b0 544B     		ldr	r3, .L47+24
 574 00b2 1800     		movs	r0, r3
 575 00b4 FFF7FEFF 		bl	printf
 222:hids.c        ****             for(i = 0; i < KEYBOARD_DATA_SIZE; i++)
 576              		.loc 1 222 0
 577 00b8 7B1D     		adds	r3, r7, #5
 578 00ba 0022     		movs	r2, #0
ARM GAS  C:\Users\black\AppData\Local\Temp\ccWcR8kd.s 			page 16


 579 00bc 1A70     		strb	r2, [r3]
 580 00be 0EE0     		b	.L40
 581              	.L41:
 223:hids.c        ****             {
 224:hids.c        ****                 DBG_PRINTF("%2.2x,", keyboard_data[i]);
 582              		.loc 1 224 0 discriminator 3
 583 00c0 7B1D     		adds	r3, r7, #5
 584 00c2 1B78     		ldrb	r3, [r3]
 585 00c4 4A4A     		ldr	r2, .L47+4
 586 00c6 D35C     		ldrb	r3, [r2, r3]
 587 00c8 1A00     		movs	r2, r3
 588 00ca 4F4B     		ldr	r3, .L47+28
 589 00cc 1100     		movs	r1, r2
 590 00ce 1800     		movs	r0, r3
 591 00d0 FFF7FEFF 		bl	printf
 222:hids.c        ****             for(i = 0; i < KEYBOARD_DATA_SIZE; i++)
 592              		.loc 1 222 0 discriminator 3
 593 00d4 7B1D     		adds	r3, r7, #5
 594 00d6 1A78     		ldrb	r2, [r3]
 595 00d8 7B1D     		adds	r3, r7, #5
 596 00da 0132     		adds	r2, r2, #1
 597 00dc 1A70     		strb	r2, [r3]
 598              	.L40:
 222:hids.c        ****             for(i = 0; i < KEYBOARD_DATA_SIZE; i++)
 599              		.loc 1 222 0 is_stmt 0 discriminator 1
 600 00de 7B1D     		adds	r3, r7, #5
 601 00e0 1B78     		ldrb	r3, [r3]
 602 00e2 072B     		cmp	r3, #7
 603 00e4 ECD9     		bls	.L41
 225:hids.c        ****             }
 226:hids.c        ****             DBG_PRINTF("\r\n");
 604              		.loc 1 226 0 is_stmt 1
 605 00e6 494B     		ldr	r3, .L47+32
 606 00e8 1800     		movs	r0, r3
 607 00ea FFF7FEFF 		bl	puts
 227:hids.c        ****             
 228:hids.c        ****             if(protocol == CYBLE_HIDS_PROTOCOL_MODE_BOOT)
 608              		.loc 1 228 0
 609 00ee 444B     		ldr	r3, .L47+20
 610 00f0 1B78     		ldrb	r3, [r3]
 611 00f2 002B     		cmp	r3, #0
 612 00f4 16D1     		bne	.L42
 229:hids.c        ****             {
 230:hids.c        ****                 apiResult = CyBle_HidssSendNotification(cyBle_connHandle, CYBLE_HUMAN_INTERFACE_DEV
 613              		.loc 1 230 0
 614 00f6 BC1D     		adds	r4, r7, #6
 615 00f8 454B     		ldr	r3, .L47+36
 616 00fa 3D4A     		ldr	r2, .L47+4
 617 00fc 0092     		str	r2, [sp]
 618 00fe 1A78     		ldrb	r2, [r3]
 619 0100 5B78     		ldrb	r3, [r3, #1]
 620 0102 1B02     		lsls	r3, r3, #8
 621 0104 1343     		orrs	r3, r2
 622 0106 0020     		movs	r0, #0
 623 0108 1B04     		lsls	r3, r3, #16
 624 010a 1B0C     		lsrs	r3, r3, #16
 625 010c 020C     		lsrs	r2, r0, #16
ARM GAS  C:\Users\black\AppData\Local\Temp\ccWcR8kd.s 			page 17


 626 010e 1204     		lsls	r2, r2, #16
 627 0110 1343     		orrs	r3, r2
 628 0112 1800     		movs	r0, r3
 629 0114 0823     		movs	r3, #8
 630 0116 0422     		movs	r2, #4
 631 0118 0021     		movs	r1, #0
 632 011a FFF7FEFF 		bl	CyBle_HidssSendNotification
 633 011e 0300     		movs	r3, r0
 634 0120 2380     		strh	r3, [r4]
 635 0122 15E0     		b	.L43
 636              	.L42:
 231:hids.c        ****                     CYBLE_HIDS_BOOT_KYBRD_IN_REP, KEYBOARD_DATA_SIZE, keyboard_data);
 232:hids.c        ****             }
 233:hids.c        ****             else
 234:hids.c        ****             {
 235:hids.c        ****                 apiResult = CyBle_HidssSendNotification(cyBle_connHandle, CYBLE_HUMAN_INTERFACE_DEV
 637              		.loc 1 235 0
 638 0124 BC1D     		adds	r4, r7, #6
 639 0126 3A4B     		ldr	r3, .L47+36
 640 0128 314A     		ldr	r2, .L47+4
 641 012a 0092     		str	r2, [sp]
 642 012c 1A78     		ldrb	r2, [r3]
 643 012e 5B78     		ldrb	r3, [r3, #1]
 644 0130 1B02     		lsls	r3, r3, #8
 645 0132 1343     		orrs	r3, r2
 646 0134 0020     		movs	r0, #0
 647 0136 1B04     		lsls	r3, r3, #16
 648 0138 1B0C     		lsrs	r3, r3, #16
 649 013a 020C     		lsrs	r2, r0, #16
 650 013c 1204     		lsls	r2, r2, #16
 651 013e 1343     		orrs	r3, r2
 652 0140 1800     		movs	r0, r3
 653 0142 0823     		movs	r3, #8
 654 0144 0722     		movs	r2, #7
 655 0146 0021     		movs	r1, #0
 656 0148 FFF7FEFF 		bl	CyBle_HidssSendNotification
 657 014c 0300     		movs	r3, r0
 658 014e 2380     		strh	r3, [r4]
 659              	.L43:
 236:hids.c        ****                     CYBLE_HUMAN_INTERFACE_DEVICE_REPORT_IN, KEYBOARD_DATA_SIZE, keyboard_data);
 237:hids.c        ****             }
 238:hids.c        ****             
 239:hids.c        ****             if(apiResult == CYBLE_ERROR_OK)
 660              		.loc 1 239 0
 661 0150 BB1D     		adds	r3, r7, #6
 662 0152 1B88     		ldrh	r3, [r3]
 663 0154 002B     		cmp	r3, #0
 664 0156 36D1     		bne	.L44
 240:hids.c        ****             {
 241:hids.c        ****                 keyboard_data[2u] = 0u;                       /* Set up keyboard data*/
 665              		.loc 1 241 0
 666 0158 254B     		ldr	r3, .L47+4
 667 015a 0022     		movs	r2, #0
 668 015c 9A70     		strb	r2, [r3, #2]
 242:hids.c        ****                 keyboard_data[3u] = 0u;                       /* Set up keyboard data*/
 669              		.loc 1 242 0
 670 015e 244B     		ldr	r3, .L47+4
ARM GAS  C:\Users\black\AppData\Local\Temp\ccWcR8kd.s 			page 18


 671 0160 0022     		movs	r2, #0
 672 0162 DA70     		strb	r2, [r3, #3]
 243:hids.c        ****                 if(protocol == CYBLE_HIDS_PROTOCOL_MODE_BOOT)
 673              		.loc 1 243 0
 674 0164 264B     		ldr	r3, .L47+20
 675 0166 1B78     		ldrb	r3, [r3]
 676 0168 002B     		cmp	r3, #0
 677 016a 16D1     		bne	.L45
 244:hids.c        ****                 {
 245:hids.c        ****                     apiResult = CyBle_HidssSendNotification(cyBle_connHandle, CYBLE_HUMAN_INTERFACE
 678              		.loc 1 245 0
 679 016c BC1D     		adds	r4, r7, #6
 680 016e 284B     		ldr	r3, .L47+36
 681 0170 1F4A     		ldr	r2, .L47+4
 682 0172 0092     		str	r2, [sp]
 683 0174 1A78     		ldrb	r2, [r3]
 684 0176 5B78     		ldrb	r3, [r3, #1]
 685 0178 1B02     		lsls	r3, r3, #8
 686 017a 1343     		orrs	r3, r2
 687 017c 0020     		movs	r0, #0
 688 017e 1B04     		lsls	r3, r3, #16
 689 0180 1B0C     		lsrs	r3, r3, #16
 690 0182 020C     		lsrs	r2, r0, #16
 691 0184 1204     		lsls	r2, r2, #16
 692 0186 1343     		orrs	r3, r2
 693 0188 1800     		movs	r0, r3
 694 018a 0823     		movs	r3, #8
 695 018c 0422     		movs	r2, #4
 696 018e 0021     		movs	r1, #0
 697 0190 FFF7FEFF 		bl	CyBle_HidssSendNotification
 698 0194 0300     		movs	r3, r0
 699 0196 2380     		strh	r3, [r4]
 700 0198 15E0     		b	.L44
 701              	.L45:
 246:hids.c        ****                         CYBLE_HIDS_BOOT_KYBRD_IN_REP, KEYBOARD_DATA_SIZE, keyboard_data);
 247:hids.c        ****                 }
 248:hids.c        ****                 else
 249:hids.c        ****                 {
 250:hids.c        ****                     apiResult = CyBle_HidssSendNotification(cyBle_connHandle, CYBLE_HUMAN_INTERFACE
 702              		.loc 1 250 0
 703 019a BC1D     		adds	r4, r7, #6
 704 019c 1C4B     		ldr	r3, .L47+36
 705 019e 144A     		ldr	r2, .L47+4
 706 01a0 0092     		str	r2, [sp]
 707 01a2 1A78     		ldrb	r2, [r3]
 708 01a4 5B78     		ldrb	r3, [r3, #1]
 709 01a6 1B02     		lsls	r3, r3, #8
 710 01a8 1343     		orrs	r3, r2
 711 01aa 0020     		movs	r0, #0
 712 01ac 1B04     		lsls	r3, r3, #16
 713 01ae 1B0C     		lsrs	r3, r3, #16
 714 01b0 020C     		lsrs	r2, r0, #16
 715 01b2 1204     		lsls	r2, r2, #16
 716 01b4 1343     		orrs	r3, r2
 717 01b6 1800     		movs	r0, r3
 718 01b8 0823     		movs	r3, #8
 719 01ba 0722     		movs	r2, #7
ARM GAS  C:\Users\black\AppData\Local\Temp\ccWcR8kd.s 			page 19


 720 01bc 0021     		movs	r1, #0
 721 01be FFF7FEFF 		bl	CyBle_HidssSendNotification
 722 01c2 0300     		movs	r3, r0
 723 01c4 2380     		strh	r3, [r4]
 724              	.L44:
 251:hids.c        ****                         CYBLE_HUMAN_INTERFACE_DEVICE_REPORT_IN, KEYBOARD_DATA_SIZE, keyboard_data);
 252:hids.c        ****                 }
 253:hids.c        ****             }
 254:hids.c        ****             if(apiResult != CYBLE_ERROR_OK)
 725              		.loc 1 254 0
 726 01c6 BB1D     		adds	r3, r7, #6
 727 01c8 1B88     		ldrh	r3, [r3]
 728 01ca 002B     		cmp	r3, #0
 729 01cc 09D0     		beq	.L46
 255:hids.c        ****             {
 256:hids.c        ****                 DBG_PRINTF("HID notification API Error: %x \r\n", apiResult);
 730              		.loc 1 256 0
 731 01ce BB1D     		adds	r3, r7, #6
 732 01d0 1A88     		ldrh	r2, [r3]
 733 01d2 104B     		ldr	r3, .L47+40
 734 01d4 1100     		movs	r1, r2
 735 01d6 1800     		movs	r0, r3
 736 01d8 FFF7FEFF 		bl	printf
 257:hids.c        ****                 keyboardSimulation = DISABLED;
 737              		.loc 1 257 0
 738 01dc 0E4B     		ldr	r3, .L47+44
 739 01de 0022     		movs	r2, #0
 740 01e0 1A80     		strh	r2, [r3]
 741              	.L46:
 258:hids.c        ****             }
 259:hids.c        ****         }
 260:hids.c        ****     }
 261:hids.c        **** }
 742              		.loc 1 261 0
 743 01e2 C046     		nop
 744 01e4 BD46     		mov	sp, r7
 745 01e6 03B0     		add	sp, sp, #12
 746              		@ sp needed
 747 01e8 90BD     		pop	{r4, r7, pc}
 748              	.L48:
 749 01ea C046     		.align	2
 750              	.L47:
 751 01ec 00000000 		.word	capsLockPress.8603
 752 01f0 04000000 		.word	keyboard_data.8599
 753 01f4 04000000 		.word	keyboardTimer.8601
 754 01f8 00000000 		.word	cyBle_busyStatus
 755 01fc 0C000000 		.word	simKey.8602
 756 0200 00000000 		.word	protocol
 757 0204 94010000 		.word	.LC30
 758 0208 A8010000 		.word	.LC32
 759 020c B0010000 		.word	.LC34
 760 0210 00000000 		.word	cyBle_connHandle
 761 0214 B4010000 		.word	.LC37
 762 0218 00000000 		.word	keyboardSimulation
 763              		.cfi_endproc
 764              	.LFE38:
 765              		.size	SimulateKeyboard, .-SimulateKeyboard
ARM GAS  C:\Users\black\AppData\Local\Temp\ccWcR8kd.s 			page 20


 766              		.bss
 767              	capsLockPress.8603:
 768 0000 00       		.space	1
 769 0001 000000   		.align	2
 770              	keyboard_data.8599:
 771 0004 00000000 		.space	8
 771      00000000 
 772              		.data
 773 0002 0000     		.align	2
 774              		.type	keyboardTimer.8601, %object
 775              		.size	keyboardTimer.8601, 4
 776              	keyboardTimer.8601:
 777 0004 0A000000 		.word	10
 778              		.bss
 779              	simKey.8602:
 780 000c 00       		.space	1
 781              		.text
 782              	.Letext0:
 783              		.file 2 "Generated_Source\\PSoC4/cytypes.h"
 784              		.file 3 "Generated_Source\\PSoC4/BLE_Stack.h"
 785              		.file 4 "Generated_Source\\PSoC4/BLE_StackGatt.h"
 786              		.file 5 "Generated_Source\\PSoC4/BLE_hids.h"
 787              		.file 6 "Generated_Source\\PSoC4/BLE_dis.h"
 788              		.file 7 "Generated_Source\\PSoC4/BLE_eventHandler.h"