ARM GAS  C:\Users\black\AppData\Local\Temp\ccstABtY.s 			page 1


   1              		.syntax unified
   2              		.cpu cortex-m0
   3              		.fpu softvfp
   4              		.eabi_attribute 20, 1
   5              		.eabi_attribute 21, 1
   6              		.eabi_attribute 23, 3
   7              		.eabi_attribute 24, 1
   8              		.eabi_attribute 25, 1
   9              		.eabi_attribute 26, 1
  10              		.eabi_attribute 30, 6
  11              		.eabi_attribute 34, 0
  12              		.eabi_attribute 18, 4
  13              		.thumb
  14              		.syntax unified
  15              		.file	"scps.c"
  16              		.text
  17              	.Ltext0:
  18              		.cfi_sections	.debug_frame
  19              		.global	requestScanRefresh
  20              		.bss
  21              		.align	1
  22              		.type	requestScanRefresh, %object
  23              		.size	requestScanRefresh, 2
  24              	requestScanRefresh:
  25 0000 0000     		.space	2
  26              		.global	scanInterval
  27              		.align	1
  28              		.type	scanInterval, %object
  29              		.size	scanInterval, 2
  30              	scanInterval:
  31 0002 0000     		.space	2
  32              		.global	scanWindow
  33              		.align	1
  34              		.type	scanWindow, %object
  35              		.size	scanWindow, 2
  36              	scanWindow:
  37 0004 0000     		.space	2
  38              		.section	.rodata
  39              		.align	2
  40              	.LC0:
  41 0000 53435053 		.ascii	"SCPS event: %lx, \000"
  41      20657665 
  41      6E743A20 
  41      256C782C 
  41      2000
  42 0012 0000     		.align	2
  43              	.LC3:
  44 0014 4359424C 		.ascii	"CYBLE_EVT_SCPSS_NOTIFICATION_ENABLED \015\000"
  44      455F4556 
  44      545F5343 
  44      5053535F 
  44      4E4F5449 
  45 003b 00       		.align	2
  46              	.LC6:
  47 003c 4359424C 		.ascii	"CYBLE_EVT_SCPSS_NOTIFICATION_DISABLED \015\000"
  47      455F4556 
  47      545F5343 
ARM GAS  C:\Users\black\AppData\Local\Temp\ccstABtY.s 			page 2


  47      5053535F 
  47      4E4F5449 
  48              		.align	2
  49              	.LC10:
  50 0064 4359424C 		.ascii	"CYBLE_EVT_SCPSS_SCAN_INT_WIN_CHAR_WRITE scanInterva"
  50      455F4556 
  50      545F5343 
  50      5053535F 
  50      5343414E 
  51 0097 6C3A2025 		.ascii	"l: %x, scanWindow: %x \015\012\000"
  51      782C2073 
  51      63616E57 
  51      696E646F 
  51      773A2025 
  52              		.align	2
  53              	.LC12:
  54 00b0 4E6F7420 		.ascii	"Not supported event\015\000"
  54      73757070 
  54      6F727465 
  54      64206576 
  54      656E740D 
  55              		.section	.text.ScpsCallBack,"ax",%progbits
  56              		.align	2
  57              		.global	ScpsCallBack
  58              		.code	16
  59              		.thumb_func
  60              		.type	ScpsCallBack, %function
  61              	ScpsCallBack:
  62              	.LFB36:
  63              		.file 1 "scps.c"
   1:scps.c        **** /*******************************************************************************
   2:scps.c        **** * File Name: scps.c
   3:scps.c        **** *
   4:scps.c        **** * Version: 1.0
   5:scps.c        **** *
   6:scps.c        **** * Description:
   7:scps.c        **** *  This file contains SCPS callback handler function.
   8:scps.c        **** *
   9:scps.c        **** * Hardware Dependency:
  10:scps.c        **** *  CY8CKIT-042 BLE
  11:scps.c        **** * 
  12:scps.c        **** ********************************************************************************
  13:scps.c        **** * Copyright 2016, Cypress Semiconductor Corporation.  All rights reserved.
  14:scps.c        **** * You may use this file only in accordance with the license, terms, conditions,
  15:scps.c        **** * disclaimers, and limitations in the end user license agreement accompanying
  16:scps.c        **** * the software package with which this file was provided.
  17:scps.c        **** *******************************************************************************/
  18:scps.c        **** 
  19:scps.c        **** #include "common.h"
  20:scps.c        **** #include "scps.h"
  21:scps.c        **** 
  22:scps.c        **** uint16 requestScanRefresh = 0u;
  23:scps.c        **** uint16 scanInterval = 0u;
  24:scps.c        **** uint16 scanWindow = 0u;
  25:scps.c        **** 
  26:scps.c        **** 
  27:scps.c        **** /*******************************************************************************
ARM GAS  C:\Users\black\AppData\Local\Temp\ccstABtY.s 			page 3


  28:scps.c        **** * Function Name: ScpsCallBack()
  29:scps.c        **** ********************************************************************************
  30:scps.c        **** *
  31:scps.c        **** * Summary:
  32:scps.c        **** *   This is an event callback function to receive service specific events from 
  33:scps.c        **** *   SCPS Service.
  34:scps.c        **** *
  35:scps.c        **** * Parameters:
  36:scps.c        **** *  event - the event code
  37:scps.c        **** *  *eventParam - the event parameters
  38:scps.c        **** *
  39:scps.c        **** * Return:
  40:scps.c        **** *  None.
  41:scps.c        **** *
  42:scps.c        **** ********************************************************************************/
  43:scps.c        **** void ScpsCallBack (uint32 event, void *eventParam)
  44:scps.c        **** {
  64              		.loc 1 44 0
  65              		.cfi_startproc
  66              		@ args = 0, pretend = 0, frame = 8
  67              		@ frame_needed = 1, uses_anonymous_args = 0
  68 0000 80B5     		push	{r7, lr}
  69              		.cfi_def_cfa_offset 8
  70              		.cfi_offset 7, -8
  71              		.cfi_offset 14, -4
  72 0002 82B0     		sub	sp, sp, #8
  73              		.cfi_def_cfa_offset 16
  74 0004 00AF     		add	r7, sp, #0
  75              		.cfi_def_cfa_register 7
  76 0006 7860     		str	r0, [r7, #4]
  77 0008 3960     		str	r1, [r7]
  45:scps.c        ****     DBG_PRINTF("SCPS event: %lx, ", event);
  78              		.loc 1 45 0
  79 000a 7A68     		ldr	r2, [r7, #4]
  80 000c 244B     		ldr	r3, .L12
  81 000e 1100     		movs	r1, r2
  82 0010 1800     		movs	r0, r3
  83 0012 FFF7FEFF 		bl	printf
  46:scps.c        ****     switch(event)
  84              		.loc 1 46 0
  85 0016 7B68     		ldr	r3, [r7, #4]
  86 0018 F73B     		subs	r3, r3, #247
  87 001a FF3B     		subs	r3, r3, #255
  88 001c 052B     		cmp	r3, #5
  89 001e 34D8     		bhi	.L2
  90 0020 9A00     		lsls	r2, r3, #2
  91 0022 204B     		ldr	r3, .L12+4
  92 0024 D318     		adds	r3, r2, r3
  93 0026 1B68     		ldr	r3, [r3]
  94 0028 9F46     		mov	pc, r3
  95              		.section	.rodata
  96 00c5 000000   		.align	2
  97              	.L4:
  98 00c8 2A000000 		.word	.L3
  99 00cc 3A000000 		.word	.L5
 100 00d0 4A000000 		.word	.L6
 101 00d4 94000000 		.word	.L11
ARM GAS  C:\Users\black\AppData\Local\Temp\ccstABtY.s 			page 4


 102 00d8 94000000 		.word	.L11
 103 00dc 94000000 		.word	.L11
 104              		.section	.text.ScpsCallBack
 105              	.L3:
  47:scps.c        ****     {
  48:scps.c        ****         case CYBLE_EVT_SCPSS_NOTIFICATION_ENABLED:
  49:scps.c        ****             DBG_PRINTF("CYBLE_EVT_SCPSS_NOTIFICATION_ENABLED \r\n");
 106              		.loc 1 49 0
 107 002a 1F4B     		ldr	r3, .L12+8
 108 002c 1800     		movs	r0, r3
 109 002e FFF7FEFF 		bl	puts
  50:scps.c        ****             requestScanRefresh = ENABLED;
 110              		.loc 1 50 0
 111 0032 1E4B     		ldr	r3, .L12+12
 112 0034 0122     		movs	r2, #1
 113 0036 1A80     		strh	r2, [r3]
  51:scps.c        ****             break;
 114              		.loc 1 51 0
 115 0038 2DE0     		b	.L10
 116              	.L5:
  52:scps.c        ****         case CYBLE_EVT_SCPSS_NOTIFICATION_DISABLED:
  53:scps.c        ****             DBG_PRINTF("CYBLE_EVT_SCPSS_NOTIFICATION_DISABLED \r\n");
 117              		.loc 1 53 0
 118 003a 1D4B     		ldr	r3, .L12+16
 119 003c 1800     		movs	r0, r3
 120 003e FFF7FEFF 		bl	puts
  54:scps.c        ****             requestScanRefresh = DISABLED;
 121              		.loc 1 54 0
 122 0042 1A4B     		ldr	r3, .L12+12
 123 0044 0022     		movs	r2, #0
 124 0046 1A80     		strh	r2, [r3]
  55:scps.c        ****             break;
 125              		.loc 1 55 0
 126 0048 25E0     		b	.L10
 127              	.L6:
  56:scps.c        ****         case CYBLE_EVT_SCPSS_SCAN_INT_WIN_CHAR_WRITE:
  57:scps.c        ****             scanInterval = CyBle_Get16ByPtr(((CYBLE_SCPS_CHAR_VALUE_T *)eventParam)->value->val);
 128              		.loc 1 57 0
 129 004a 3B68     		ldr	r3, [r7]
 130 004c 5B68     		ldr	r3, [r3, #4]
 131 004e 1B68     		ldr	r3, [r3]
 132 0050 1800     		movs	r0, r3
 133 0052 FFF7FEFF 		bl	CyBle_Get16ByPtr
 134 0056 0300     		movs	r3, r0
 135 0058 1A00     		movs	r2, r3
 136 005a 164B     		ldr	r3, .L12+20
 137 005c 1A80     		strh	r2, [r3]
  58:scps.c        ****             scanWindow = CyBle_Get16ByPtr(((CYBLE_SCPS_CHAR_VALUE_T *)eventParam)->value->val + siz
 138              		.loc 1 58 0
 139 005e 3B68     		ldr	r3, [r7]
 140 0060 5B68     		ldr	r3, [r3, #4]
 141 0062 1B68     		ldr	r3, [r3]
 142 0064 0233     		adds	r3, r3, #2
 143 0066 1800     		movs	r0, r3
 144 0068 FFF7FEFF 		bl	CyBle_Get16ByPtr
 145 006c 0300     		movs	r3, r0
 146 006e 1A00     		movs	r2, r3
ARM GAS  C:\Users\black\AppData\Local\Temp\ccstABtY.s 			page 5


 147 0070 114B     		ldr	r3, .L12+24
 148 0072 1A80     		strh	r2, [r3]
  59:scps.c        ****             DBG_PRINTF("CYBLE_EVT_SCPSS_SCAN_INT_WIN_CHAR_WRITE scanInterval: %x, scanWindow: %x \r
 149              		.loc 1 59 0
 150 0074 0F4B     		ldr	r3, .L12+20
 151 0076 1B88     		ldrh	r3, [r3]
 152 0078 1900     		movs	r1, r3
 153 007a 0F4B     		ldr	r3, .L12+24
 154 007c 1B88     		ldrh	r3, [r3]
 155 007e 1A00     		movs	r2, r3
 156 0080 0E4B     		ldr	r3, .L12+28
 157 0082 1800     		movs	r0, r3
 158 0084 FFF7FEFF 		bl	printf
  60:scps.c        ****             break;
 159              		.loc 1 60 0
 160 0088 05E0     		b	.L10
 161              	.L2:
  61:scps.c        ****         case CYBLE_EVT_SCPSC_NOTIFICATION:
  62:scps.c        ****             break;
  63:scps.c        ****         case CYBLE_EVT_SCPSC_READ_DESCR_RESPONSE:
  64:scps.c        ****             break;
  65:scps.c        ****         case CYBLE_EVT_SCPSC_WRITE_DESCR_RESPONSE:
  66:scps.c        ****             break;
  67:scps.c        ****         default:
  68:scps.c        ****             DBG_PRINTF("Not supported event\r\n");
 162              		.loc 1 68 0
 163 008a 0D4B     		ldr	r3, .L12+32
 164 008c 1800     		movs	r0, r3
 165 008e FFF7FEFF 		bl	puts
  69:scps.c        **** 			break;
 166              		.loc 1 69 0
 167 0092 00E0     		b	.L10
 168              	.L11:
  66:scps.c        ****         default:
 169              		.loc 1 66 0
 170 0094 C046     		nop
 171              	.L10:
  70:scps.c        ****     }
  71:scps.c        **** }
 172              		.loc 1 71 0
 173 0096 C046     		nop
 174 0098 BD46     		mov	sp, r7
 175 009a 02B0     		add	sp, sp, #8
 176              		@ sp needed
 177 009c 80BD     		pop	{r7, pc}
 178              	.L13:
 179 009e C046     		.align	2
 180              	.L12:
 181 00a0 00000000 		.word	.LC0
 182 00a4 C8000000 		.word	.L4
 183 00a8 14000000 		.word	.LC3
 184 00ac 00000000 		.word	requestScanRefresh
 185 00b0 3C000000 		.word	.LC6
 186 00b4 00000000 		.word	scanInterval
 187 00b8 00000000 		.word	scanWindow
 188 00bc 64000000 		.word	.LC10
 189 00c0 B0000000 		.word	.LC12
ARM GAS  C:\Users\black\AppData\Local\Temp\ccstABtY.s 			page 6


 190              		.cfi_endproc
 191              	.LFE36:
 192              		.size	ScpsCallBack, .-ScpsCallBack
 193              		.section	.text.ScpsInit,"ax",%progbits
 194              		.align	2
 195              		.global	ScpsInit
 196              		.code	16
 197              		.thumb_func
 198              		.type	ScpsInit, %function
 199              	ScpsInit:
 200              	.LFB37:
  72:scps.c        **** 
  73:scps.c        **** 
  74:scps.c        **** /*******************************************************************************
  75:scps.c        **** * Function Name: ScpsInit()
  76:scps.c        **** ********************************************************************************
  77:scps.c        **** *
  78:scps.c        **** * Summary:
  79:scps.c        **** *   Initializes the SCPS Service.
  80:scps.c        **** *
  81:scps.c        **** *******************************************************************************/
  82:scps.c        **** void ScpsInit(void)
  83:scps.c        **** {
 201              		.loc 1 83 0
 202              		.cfi_startproc
 203              		@ args = 0, pretend = 0, frame = 8
 204              		@ frame_needed = 1, uses_anonymous_args = 0
 205 0000 90B5     		push	{r4, r7, lr}
 206              		.cfi_def_cfa_offset 12
 207              		.cfi_offset 4, -12
 208              		.cfi_offset 7, -8
 209              		.cfi_offset 14, -4
 210 0002 83B0     		sub	sp, sp, #12
 211              		.cfi_def_cfa_offset 24
 212 0004 00AF     		add	r7, sp, #0
 213              		.cfi_def_cfa_register 7
  84:scps.c        ****     CYBLE_API_RESULT_T apiResult;
  85:scps.c        ****     uint16 cccdValue;
  86:scps.c        ****     
  87:scps.c        ****     /* Register service specific callback function */
  88:scps.c        ****     CyBle_ScpsRegisterAttrCallback(ScpsCallBack);
 214              		.loc 1 88 0
 215 0006 104B     		ldr	r3, .L17
 216 0008 1800     		movs	r0, r3
 217 000a FFF7FEFF 		bl	CyBle_ScpsRegisterAttrCallback
  89:scps.c        **** 
  90:scps.c        ****     /* Read CCCD configurations from flash */
  91:scps.c        ****     apiResult = CyBle_ScpssGetCharacteristicDescriptor(CYBLE_SCPS_SCAN_REFRESH,
 218              		.loc 1 91 0
 219 000e BC1D     		adds	r4, r7, #6
 220 0010 3B1D     		adds	r3, r7, #4
 221 0012 0222     		movs	r2, #2
 222 0014 0021     		movs	r1, #0
 223 0016 0120     		movs	r0, #1
 224 0018 FFF7FEFF 		bl	CyBle_ScpssGetCharacteristicDescriptor
 225 001c 0300     		movs	r3, r0
 226 001e 2380     		strh	r3, [r4]
ARM GAS  C:\Users\black\AppData\Local\Temp\ccstABtY.s 			page 7


  92:scps.c        ****         CYBLE_SCPS_SCAN_REFRESH_CCCD, CYBLE_CCCD_LEN, (uint8 *)&cccdValue);
  93:scps.c        ****     if((apiResult == CYBLE_ERROR_OK) && (cccdValue != 0u))
 227              		.loc 1 93 0
 228 0020 BB1D     		adds	r3, r7, #6
 229 0022 1B88     		ldrh	r3, [r3]
 230 0024 002B     		cmp	r3, #0
 231 0026 0AD1     		bne	.L16
 232              		.loc 1 93 0 is_stmt 0 discriminator 1
 233 0028 3B1D     		adds	r3, r7, #4
 234 002a 1B88     		ldrh	r3, [r3]
 235 002c 002B     		cmp	r3, #0
 236 002e 06D0     		beq	.L16
  94:scps.c        ****     {
  95:scps.c        ****         requestScanRefresh |= ENABLED;
 237              		.loc 1 95 0 is_stmt 1
 238 0030 064B     		ldr	r3, .L17+4
 239 0032 1B88     		ldrh	r3, [r3]
 240 0034 0122     		movs	r2, #1
 241 0036 1343     		orrs	r3, r2
 242 0038 9AB2     		uxth	r2, r3
 243 003a 044B     		ldr	r3, .L17+4
 244 003c 1A80     		strh	r2, [r3]
 245              	.L16:
  96:scps.c        ****     }
  97:scps.c        **** }
 246              		.loc 1 97 0
 247 003e C046     		nop
 248 0040 BD46     		mov	sp, r7
 249 0042 03B0     		add	sp, sp, #12
 250              		@ sp needed
 251 0044 90BD     		pop	{r4, r7, pc}
 252              	.L18:
 253 0046 C046     		.align	2
 254              	.L17:
 255 0048 00000000 		.word	ScpsCallBack
 256 004c 00000000 		.word	requestScanRefresh
 257              		.cfi_endproc
 258              	.LFE37:
 259              		.size	ScpsInit, .-ScpsInit
 260              		.text
 261              	.Letext0:
 262              		.file 2 "Generated_Source\\PSoC4/cytypes.h"
 263              		.file 3 "Generated_Source\\PSoC4/BLE_Stack.h"
 264              		.file 4 "Generated_Source\\PSoC4/BLE_StackGatt.h"
 265              		.file 5 "Generated_Source\\PSoC4/BLE_dis.h"
 266              		.file 6 "Generated_Source\\PSoC4/BLE_scps.h"
 267              		.file 7 "Generated_Source\\PSoC4/BLE_eventHandler.h"